cnumpy.core.multiarray
_reconstruct
p1
(cnumpy
ndarray
p2
(I0
tS'b'
tRp3
(I1
(I25
I25
tcnumpy
dtype
p4
(S'O8'
I0
I1
tRp5
(I3
S'|'
NNNI-1
I-1
I63
tbI00
(lp6
(dp7
S'num_i'
p8
I50
sS'we'
p9
cnumpy.core.multiarray
scalar
p10
(g4
(S'f8'
I0
I1
tRp11
(I3
S'<'
NNNI-1
I-1
I0
tbS'\xfa~j\xbct\x93h?'
tRp12
sS'num_e'
p13
I200
sS'wi'
p14
g10
(g11
S'\xfc\xa9\xf1\xd2Mb\x80?'
tRp15
sS're'
p16
g10
(g11
S'\x00\x00\x00\x00\x00\x004@'
tRp17
sS'p_conn_et'
p18
F0.10000000000000001
sS'num_t'
p19
I30
sS'ri'
p20
g10
(g11
S'\x00\x00\x00\x00\x00\x004@'
tRp21
sS'p_conn_it'
p22
F0.10000000000000001
sa(dp23
g8
I50
sg9
g10
(g11
S'\xfa~j\xbct\x93h?'
tRp24
sg13
I200
sg14
g10
(g11
S'\xfc\xa9\xf1\xd2Mb\x80?'
tRp25
sg16
g17
sg18
F0.10000000000000001
sg19
I30
sg20
g10
(g11
S'\x00\x00\x00\x00\x00\x009@'
tRp26
sg22
F0.10000000000000001
sa(dp27
g8
I50
sg9
g10
(g11
S'\xfa~j\xbct\x93h?'
tRp28
sg13
I200
sg14
g10
(g11
S'\xfc\xa9\xf1\xd2Mb\x80?'
tRp29
sg16
g17
sg18
F0.10000000000000001
sg19
I30
sg20
g10
(g11
S'\x00\x00\x00\x00\x00\x00>@'
tRp30
sg22
F0.10000000000000001
sa(dp31
g8
I50
sg9
g10
(g11
S'\xfa~j\xbct\x93h?'
tRp32
sg13
I200
sg14
g10
(g11
S'\xfc\xa9\xf1\xd2Mb\x80?'
tRp33
sg16
g17
sg18
F0.10000000000000001
sg19
I30
sg20
g10
(g11
S'\x00\x00\x00\x00\x00\x80A@'
tRp34
sg22
F0.10000000000000001
sa(dp35
g8
I50
sg9
g10
(g11
S'\xfa~j\xbct\x93h?'
tRp36
sg13
I200
sg14
g10
(g11
S'\xfc\xa9\xf1\xd2Mb\x80?'
tRp37
sg16
g17
sg18
F0.10000000000000001
sg19
I30
sg20
g10
(g11
S'\x00\x00\x00\x00\x00\x00D@'
tRp38
sg22
F0.10000000000000001
sa(dp39
g8
I50
sg9
g12
sg13
I200
sg14
g10
(g11
S'<\xdfO\x8d\x97n\x82?'
tRp40
sg16
g17
sg18
F0.10000000000000001
sg19
I30
sg20
g21
sg22
F0.10000000000000001
sa(dp41
g8
I50
sg9
g24
sg13
I200
sg14
g10
(g11
S'<\xdfO\x8d\x97n\x82?'
tRp42
sg16
g17
sg18
F0.10000000000000001
sg19
I30
sg20
g26
sg22
F0.10000000000000001
sa(dp43
g8
I50
sg9
g28
sg13
I200
sg14
g10
(g11
S'<\xdfO\x8d\x97n\x82?'
tRp44
sg16
g17
sg18
F0.10000000000000001
sg19
I30
sg20
g30
sg22
F0.10000000000000001
sa(dp45
g8
I50
sg9
g32
sg13
I200
sg14
g10
(g11
S'<\xdfO\x8d\x97n\x82?'
tRp46
sg16
g17
sg18
F0.10000000000000001
sg19
I30
sg20
g34
sg22
F0.10000000000000001
sa(dp47
g8
I50
sg9
g36
sg13
I200
sg14
g10
(g11
S'<\xdfO\x8d\x97n\x82?'
tRp48
sg16
g17
sg18
F0.10000000000000001
sg19
I30
sg20
g38
sg22
F0.10000000000000001
sa(dp49
g8
I50
sg9
g12
sg13
I200
sg14
g10
(g11
S'{\x14\xaeG\xe1z\x84?'
tRp50
sg16
g17
sg18
F0.10000000000000001
sg19
I30
sg20
g21
sg22
F0.10000000000000001
sa(dp51
g8
I50
sg9
g24
sg13
I200
sg14
g10
(g11
S'{\x14\xaeG\xe1z\x84?'
tRp52
sg16
g17
sg18
F0.10000000000000001
sg19
I30
sg20
g26
sg22
F0.10000000000000001
sa(dp53
g8
I50
sg9
g28
sg13
I200
sg14
g10
(g11
S'{\x14\xaeG\xe1z\x84?'
tRp54
sg16
g17
sg18
F0.10000000000000001
sg19
I30
sg20
g30
sg22
F0.10000000000000001
sa(dp55
g8
I50
sg9
g32
sg13
I200
sg14
g10
(g11
S'{\x14\xaeG\xe1z\x84?'
tRp56
sg16
g17
sg18
F0.10000000000000001
sg19
I30
sg20
g34
sg22
F0.10000000000000001
sa(dp57
g8
I50
sg9
g36
sg13
I200
sg14
g10
(g11
S'{\x14\xaeG\xe1z\x84?'
tRp58
sg16
g17
sg18
F0.10000000000000001
sg19
I30
sg20
g38
sg22
F0.10000000000000001
sa(dp59
g8
I50
sg9
g12
sg13
I200
sg14
g10
(g11
S'\xbaI\x0c\x02+\x87\x86?'
tRp60
sg16
g17
sg18
F0.10000000000000001
sg19
I30
sg20
g21
sg22
F0.10000000000000001
sa(dp61
g8
I50
sg9
g24
sg13
I200
sg14
g10
(g11
S'\xbaI\x0c\x02+\x87\x86?'
tRp62
sg16
g17
sg18
F0.10000000000000001
sg19
I30
sg20
g26
sg22
F0.10000000000000001
sa(dp63
g8
I50
sg9
g28
sg13
I200
sg14
g10
(g11
S'\xbaI\x0c\x02+\x87\x86?'
tRp64
sg16
g17
sg18
F0.10000000000000001
sg19
I30
sg20
g30
sg22
F0.10000000000000001
sa(dp65
g8
I50
sg9
g32
sg13
I200
sg14
g10
(g11
S'\xbaI\x0c\x02+\x87\x86?'
tRp66
sg16
g17
sg18
F0.10000000000000001
sg19
I30
sg20
g34
sg22
F0.10000000000000001
sa(dp67
g8
I50
sg9
g36
sg13
I200
sg14
g10
(g11
S'\xbaI\x0c\x02+\x87\x86?'
tRp68
sg16
g17
sg18
F0.10000000000000001
sg19
I30
sg20
g38
sg22
F0.10000000000000001
sa(dp69
g8
I50
sg9
g12
sg13
I200
sg14
g10
(g11
S'\xfa~j\xbct\x93\x88?'
tRp70
sg16
g17
sg18
F0.10000000000000001
sg19
I30
sg20
g21
sg22
F0.10000000000000001
sa(dp71
g8
I50
sg9
g24
sg13
I200
sg14
g10
(g11
S'\xfa~j\xbct\x93\x88?'
tRp72
sg16
g17
sg18
F0.10000000000000001
sg19
I30
sg20
g26
sg22
F0.10000000000000001
sa(dp73
g8
I50
sg9
g28
sg13
I200
sg14
g10
(g11
S'\xfa~j\xbct\x93\x88?'
tRp74
sg16
g17
sg18
F0.10000000000000001
sg19
I30
sg20
g30
sg22
F0.10000000000000001
sa(dp75
g8
I50
sg9
g32
sg13
I200
sg14
g10
(g11
S'\xfa~j\xbct\x93\x88?'
tRp76
sg16
g17
sg18
F0.10000000000000001
sg19
I30
sg20
g34
sg22
F0.10000000000000001
sa(dp77
g8
I50
sg9
g36
sg13
I200
sg14
g10
(g11
S'\xfa~j\xbct\x93\x88?'
tRp78
sg16
g17
sg18
F0.10000000000000001
sg19
I30
sg20
g38
sg22
F0.10000000000000001
sa(dp79
g8
I50
sg9
g10
(g11
S'\xfa~j\xbct\x93h?'
tRp80
sg13
I200
sg14
g10
(g11
S'\xfc\xa9\xf1\xd2Mb\x80?'
tRp81
sg16
g10
(g11
S'\x00\x00\x00\x00\x00\x009@'
tRp82
sg18
F0.10000000000000001
sg19
I30
sg20
g10
(g11
S'\x00\x00\x00\x00\x00\x004@'
tRp83
sg22
F0.10000000000000001
sa(dp84
g8
I50
sg9
g10
(g11
S'\xfa~j\xbct\x93h?'
tRp85
sg13
I200
sg14
g10
(g11
S'\xfc\xa9\xf1\xd2Mb\x80?'
tRp86
sg16
g82
sg18
F0.10000000000000001
sg19
I30
sg20
g10
(g11
S'\x00\x00\x00\x00\x00\x009@'
tRp87
sg22
F0.10000000000000001
sa(dp88
g8
I50
sg9
g10
(g11
S'\xfa~j\xbct\x93h?'
tRp89
sg13
I200
sg14
g10
(g11
S'\xfc\xa9\xf1\xd2Mb\x80?'
tRp90
sg16
g82
sg18
F0.10000000000000001
sg19
I30
sg20
g10
(g11
S'\x00\x00\x00\x00\x00\x00>@'
tRp91
sg22
F0.10000000000000001
sa(dp92
g8
I50
sg9
g10
(g11
S'\xfa~j\xbct\x93h?'
tRp93
sg13
I200
sg14
g10
(g11
S'\xfc\xa9\xf1\xd2Mb\x80?'
tRp94
sg16
g82
sg18
F0.10000000000000001
sg19
I30
sg20
g10
(g11
S'\x00\x00\x00\x00\x00\x80A@'
tRp95
sg22
F0.10000000000000001
sa(dp96
g8
I50
sg9
g10
(g11
S'\xfa~j\xbct\x93h?'
tRp97
sg13
I200
sg14
g10
(g11
S'\xfc\xa9\xf1\xd2Mb\x80?'
tRp98
sg16
g82
sg18
F0.10000000000000001
sg19
I30
sg20
g10
(g11
S'\x00\x00\x00\x00\x00\x00D@'
tRp99
sg22
F0.10000000000000001
sa(dp100
g8
I50
sg9
g80
sg13
I200
sg14
g10
(g11
S'<\xdfO\x8d\x97n\x82?'
tRp101
sg16
g82
sg18
F0.10000000000000001
sg19
I30
sg20
g83
sg22
F0.10000000000000001
sa(dp102
g8
I50
sg9
g85
sg13
I200
sg14
g10
(g11
S'<\xdfO\x8d\x97n\x82?'
tRp103
sg16
g82
sg18
F0.10000000000000001
sg19
I30
sg20
g87
sg22
F0.10000000000000001
sa(dp104
g8
I50
sg9
g89
sg13
I200
sg14
g10
(g11
S'<\xdfO\x8d\x97n\x82?'
tRp105
sg16
g82
sg18
F0.10000000000000001
sg19
I30
sg20
g91
sg22
F0.10000000000000001
sa(dp106
g8
I50
sg9
g93
sg13
I200
sg14
g10
(g11
S'<\xdfO\x8d\x97n\x82?'
tRp107
sg16
g82
sg18
F0.10000000000000001
sg19
I30
sg20
g95
sg22
F0.10000000000000001
sa(dp108
g8
I50
sg9
g97
sg13
I200
sg14
g10
(g11
S'<\xdfO\x8d\x97n\x82?'
tRp109
sg16
g82
sg18
F0.10000000000000001
sg19
I30
sg20
g99
sg22
F0.10000000000000001
sa(dp110
g8
I50
sg9
g80
sg13
I200
sg14
g10
(g11
S'{\x14\xaeG\xe1z\x84?'
tRp111
sg16
g82
sg18
F0.10000000000000001
sg19
I30
sg20
g83
sg22
F0.10000000000000001
sa(dp112
g8
I50
sg9
g85
sg13
I200
sg14
g10
(g11
S'{\x14\xaeG\xe1z\x84?'
tRp113
sg16
g82
sg18
F0.10000000000000001
sg19
I30
sg20
g87
sg22
F0.10000000000000001
sa(dp114
g8
I50
sg9
g89
sg13
I200
sg14
g10
(g11
S'{\x14\xaeG\xe1z\x84?'
tRp115
sg16
g82
sg18
F0.10000000000000001
sg19
I30
sg20
g91
sg22
F0.10000000000000001
sa(dp116
g8
I50
sg9
g93
sg13
I200
sg14
g10
(g11
S'{\x14\xaeG\xe1z\x84?'
tRp117
sg16
g82
sg18
F0.10000000000000001
sg19
I30
sg20
g95
sg22
F0.10000000000000001
sa(dp118
g8
I50
sg9
g97
sg13
I200
sg14
g10
(g11
S'{\x14\xaeG\xe1z\x84?'
tRp119
sg16
g82
sg18
F0.10000000000000001
sg19
I30
sg20
g99
sg22
F0.10000000000000001
sa(dp120
g8
I50
sg9
g80
sg13
I200
sg14
g10
(g11
S'\xbaI\x0c\x02+\x87\x86?'
tRp121
sg16
g82
sg18
F0.10000000000000001
sg19
I30
sg20
g83
sg22
F0.10000000000000001
sa(dp122
g8
I50
sg9
g85
sg13
I200
sg14
g10
(g11
S'\xbaI\x0c\x02+\x87\x86?'
tRp123
sg16
g82
sg18
F0.10000000000000001
sg19
I30
sg20
g87
sg22
F0.10000000000000001
sa(dp124
g8
I50
sg9
g89
sg13
I200
sg14
g10
(g11
S'\xbaI\x0c\x02+\x87\x86?'
tRp125
sg16
g82
sg18
F0.10000000000000001
sg19
I30
sg20
g91
sg22
F0.10000000000000001
sa(dp126
g8
I50
sg9
g93
sg13
I200
sg14
g10
(g11
S'\xbaI\x0c\x02+\x87\x86?'
tRp127
sg16
g82
sg18
F0.10000000000000001
sg19
I30
sg20
g95
sg22
F0.10000000000000001
sa(dp128
g8
I50
sg9
g97
sg13
I200
sg14
g10
(g11
S'\xbaI\x0c\x02+\x87\x86?'
tRp129
sg16
g82
sg18
F0.10000000000000001
sg19
I30
sg20
g99
sg22
F0.10000000000000001
sa(dp130
g8
I50
sg9
g80
sg13
I200
sg14
g10
(g11
S'\xfa~j\xbct\x93\x88?'
tRp131
sg16
g82
sg18
F0.10000000000000001
sg19
I30
sg20
g83
sg22
F0.10000000000000001
sa(dp132
g8
I50
sg9
g85
sg13
I200
sg14
g10
(g11
S'\xfa~j\xbct\x93\x88?'
tRp133
sg16
g82
sg18
F0.10000000000000001
sg19
I30
sg20
g87
sg22
F0.10000000000000001
sa(dp134
g8
I50
sg9
g89
sg13
I200
sg14
g10
(g11
S'\xfa~j\xbct\x93\x88?'
tRp135
sg16
g82
sg18
F0.10000000000000001
sg19
I30
sg20
g91
sg22
F0.10000000000000001
sa(dp136
g8
I50
sg9
g93
sg13
I200
sg14
g10
(g11
S'\xfa~j\xbct\x93\x88?'
tRp137
sg16
g82
sg18
F0.10000000000000001
sg19
I30
sg20
g95
sg22
F0.10000000000000001
sa(dp138
g8
I50
sg9
g97
sg13
I200
sg14
g10
(g11
S'\xfa~j\xbct\x93\x88?'
tRp139
sg16
g82
sg18
F0.10000000000000001
sg19
I30
sg20
g99
sg22
F0.10000000000000001
sa(dp140
g8
I50
sg9
g10
(g11
S'\xfa~j\xbct\x93h?'
tRp141
sg13
I200
sg14
g10
(g11
S'\xfc\xa9\xf1\xd2Mb\x80?'
tRp142
sg16
g10
(g11
S'\x00\x00\x00\x00\x00\x00>@'
tRp143
sg18
F0.10000000000000001
sg19
I30
sg20
g10
(g11
S'\x00\x00\x00\x00\x00\x004@'
tRp144
sg22
F0.10000000000000001
sa(dp145
g8
I50
sg9
g10
(g11
S'\xfa~j\xbct\x93h?'
tRp146
sg13
I200
sg14
g10
(g11
S'\xfc\xa9\xf1\xd2Mb\x80?'
tRp147
sg16
g143
sg18
F0.10000000000000001
sg19
I30
sg20
g10
(g11
S'\x00\x00\x00\x00\x00\x009@'
tRp148
sg22
F0.10000000000000001
sa(dp149
g8
I50
sg9
g10
(g11
S'\xfa~j\xbct\x93h?'
tRp150
sg13
I200
sg14
g10
(g11
S'\xfc\xa9\xf1\xd2Mb\x80?'
tRp151
sg16
g143
sg18
F0.10000000000000001
sg19
I30
sg20
g10
(g11
S'\x00\x00\x00\x00\x00\x00>@'
tRp152
sg22
F0.10000000000000001
sa(dp153
g8
I50
sg9
g10
(g11
S'\xfa~j\xbct\x93h?'
tRp154
sg13
I200
sg14
g10
(g11
S'\xfc\xa9\xf1\xd2Mb\x80?'
tRp155
sg16
g143
sg18
F0.10000000000000001
sg19
I30
sg20
g10
(g11
S'\x00\x00\x00\x00\x00\x80A@'
tRp156
sg22
F0.10000000000000001
sa(dp157
g8
I50
sg9
g10
(g11
S'\xfa~j\xbct\x93h?'
tRp158
sg13
I200
sg14
g10
(g11
S'\xfc\xa9\xf1\xd2Mb\x80?'
tRp159
sg16
g143
sg18
F0.10000000000000001
sg19
I30
sg20
g10
(g11
S'\x00\x00\x00\x00\x00\x00D@'
tRp160
sg22
F0.10000000000000001
sa(dp161
g8
I50
sg9
g141
sg13
I200
sg14
g10
(g11
S'<\xdfO\x8d\x97n\x82?'
tRp162
sg16
g143
sg18
F0.10000000000000001
sg19
I30
sg20
g144
sg22
F0.10000000000000001
sa(dp163
g8
I50
sg9
g146
sg13
I200
sg14
g10
(g11
S'<\xdfO\x8d\x97n\x82?'
tRp164
sg16
g143
sg18
F0.10000000000000001
sg19
I30
sg20
g148
sg22
F0.10000000000000001
sa(dp165
g8
I50
sg9
g150
sg13
I200
sg14
g10
(g11
S'<\xdfO\x8d\x97n\x82?'
tRp166
sg16
g143
sg18
F0.10000000000000001
sg19
I30
sg20
g152
sg22
F0.10000000000000001
sa(dp167
g8
I50
sg9
g154
sg13
I200
sg14
g10
(g11
S'<\xdfO\x8d\x97n\x82?'
tRp168
sg16
g143
sg18
F0.10000000000000001
sg19
I30
sg20
g156
sg22
F0.10000000000000001
sa(dp169
g8
I50
sg9
g158
sg13
I200
sg14
g10
(g11
S'<\xdfO\x8d\x97n\x82?'
tRp170
sg16
g143
sg18
F0.10000000000000001
sg19
I30
sg20
g160
sg22
F0.10000000000000001
sa(dp171
g8
I50
sg9
g141
sg13
I200
sg14
g10
(g11
S'{\x14\xaeG\xe1z\x84?'
tRp172
sg16
g143
sg18
F0.10000000000000001
sg19
I30
sg20
g144
sg22
F0.10000000000000001
sa(dp173
g8
I50
sg9
g146
sg13
I200
sg14
g10
(g11
S'{\x14\xaeG\xe1z\x84?'
tRp174
sg16
g143
sg18
F0.10000000000000001
sg19
I30
sg20
g148
sg22
F0.10000000000000001
sa(dp175
g8
I50
sg9
g150
sg13
I200
sg14
g10
(g11
S'{\x14\xaeG\xe1z\x84?'
tRp176
sg16
g143
sg18
F0.10000000000000001
sg19
I30
sg20
g152
sg22
F0.10000000000000001
sa(dp177
g8
I50
sg9
g154
sg13
I200
sg14
g10
(g11
S'{\x14\xaeG\xe1z\x84?'
tRp178
sg16
g143
sg18
F0.10000000000000001
sg19
I30
sg20
g156
sg22
F0.10000000000000001
sa(dp179
g8
I50
sg9
g158
sg13
I200
sg14
g10
(g11
S'{\x14\xaeG\xe1z\x84?'
tRp180
sg16
g143
sg18
F0.10000000000000001
sg19
I30
sg20
g160
sg22
F0.10000000000000001
sa(dp181
g8
I50
sg9
g141
sg13
I200
sg14
g10
(g11
S'\xbaI\x0c\x02+\x87\x86?'
tRp182
sg16
g143
sg18
F0.10000000000000001
sg19
I30
sg20
g144
sg22
F0.10000000000000001
sa(dp183
g8
I50
sg9
g146
sg13
I200
sg14
g10
(g11
S'\xbaI\x0c\x02+\x87\x86?'
tRp184
sg16
g143
sg18
F0.10000000000000001
sg19
I30
sg20
g148
sg22
F0.10000000000000001
sa(dp185
g8
I50
sg9
g150
sg13
I200
sg14
g10
(g11
S'\xbaI\x0c\x02+\x87\x86?'
tRp186
sg16
g143
sg18
F0.10000000000000001
sg19
I30
sg20
g152
sg22
F0.10000000000000001
sa(dp187
g8
I50
sg9
g154
sg13
I200
sg14
g10
(g11
S'\xbaI\x0c\x02+\x87\x86?'
tRp188
sg16
g143
sg18
F0.10000000000000001
sg19
I30
sg20
g156
sg22
F0.10000000000000001
sa(dp189
g8
I50
sg9
g158
sg13
I200
sg14
g10
(g11
S'\xbaI\x0c\x02+\x87\x86?'
tRp190
sg16
g143
sg18
F0.10000000000000001
sg19
I30
sg20
g160
sg22
F0.10000000000000001
sa(dp191
g8
I50
sg9
g141
sg13
I200
sg14
g10
(g11
S'\xfa~j\xbct\x93\x88?'
tRp192
sg16
g143
sg18
F0.10000000000000001
sg19
I30
sg20
g144
sg22
F0.10000000000000001
sa(dp193
g8
I50
sg9
g146
sg13
I200
sg14
g10
(g11
S'\xfa~j\xbct\x93\x88?'
tRp194
sg16
g143
sg18
F0.10000000000000001
sg19
I30
sg20
g148
sg22
F0.10000000000000001
sa(dp195
g8
I50
sg9
g150
sg13
I200
sg14
g10
(g11
S'\xfa~j\xbct\x93\x88?'
tRp196
sg16
g143
sg18
F0.10000000000000001
sg19
I30
sg20
g152
sg22
F0.10000000000000001
sa(dp197
g8
I50
sg9
g154
sg13
I200
sg14
g10
(g11
S'\xfa~j\xbct\x93\x88?'
tRp198
sg16
g143
sg18
F0.10000000000000001
sg19
I30
sg20
g156
sg22
F0.10000000000000001
sa(dp199
g8
I50
sg9
g158
sg13
I200
sg14
g10
(g11
S'\xfa~j\xbct\x93\x88?'
tRp200
sg16
g143
sg18
F0.10000000000000001
sg19
I30
sg20
g160
sg22
F0.10000000000000001
sa(dp201
g8
I50
sg9
g10
(g11
S'\xfa~j\xbct\x93h?'
tRp202
sg13
I200
sg14
g10
(g11
S'\xfc\xa9\xf1\xd2Mb\x80?'
tRp203
sg16
g10
(g11
S'\x00\x00\x00\x00\x00\x80A@'
tRp204
sg18
F0.10000000000000001
sg19
I30
sg20
g10
(g11
S'\x00\x00\x00\x00\x00\x004@'
tRp205
sg22
F0.10000000000000001
sa(dp206
g8
I50
sg9
g10
(g11
S'\xfa~j\xbct\x93h?'
tRp207
sg13
I200
sg14
g10
(g11
S'\xfc\xa9\xf1\xd2Mb\x80?'
tRp208
sg16
g204
sg18
F0.10000000000000001
sg19
I30
sg20
g10
(g11
S'\x00\x00\x00\x00\x00\x009@'
tRp209
sg22
F0.10000000000000001
sa(dp210
g8
I50
sg9
g10
(g11
S'\xfa~j\xbct\x93h?'
tRp211
sg13
I200
sg14
g10
(g11
S'\xfc\xa9\xf1\xd2Mb\x80?'
tRp212
sg16
g204
sg18
F0.10000000000000001
sg19
I30
sg20
g10
(g11
S'\x00\x00\x00\x00\x00\x00>@'
tRp213
sg22
F0.10000000000000001
sa(dp214
g8
I50
sg9
g10
(g11
S'\xfa~j\xbct\x93h?'
tRp215
sg13
I200
sg14
g10
(g11
S'\xfc\xa9\xf1\xd2Mb\x80?'
tRp216
sg16
g204
sg18
F0.10000000000000001
sg19
I30
sg20
g10
(g11
S'\x00\x00\x00\x00\x00\x80A@'
tRp217
sg22
F0.10000000000000001
sa(dp218
g8
I50
sg9
g10
(g11
S'\xfa~j\xbct\x93h?'
tRp219
sg13
I200
sg14
g10
(g11
S'\xfc\xa9\xf1\xd2Mb\x80?'
tRp220
sg16
g204
sg18
F0.10000000000000001
sg19
I30
sg20
g10
(g11
S'\x00\x00\x00\x00\x00\x00D@'
tRp221
sg22
F0.10000000000000001
sa(dp222
g8
I50
sg9
g202
sg13
I200
sg14
g10
(g11
S'<\xdfO\x8d\x97n\x82?'
tRp223
sg16
g204
sg18
F0.10000000000000001
sg19
I30
sg20
g205
sg22
F0.10000000000000001
sa(dp224
g8
I50
sg9
g207
sg13
I200
sg14
g10
(g11
S'<\xdfO\x8d\x97n\x82?'
tRp225
sg16
g204
sg18
F0.10000000000000001
sg19
I30
sg20
g209
sg22
F0.10000000000000001
sa(dp226
g8
I50
sg9
g211
sg13
I200
sg14
g10
(g11
S'<\xdfO\x8d\x97n\x82?'
tRp227
sg16
g204
sg18
F0.10000000000000001
sg19
I30
sg20
g213
sg22
F0.10000000000000001
sa(dp228
g8
I50
sg9
g215
sg13
I200
sg14
g10
(g11
S'<\xdfO\x8d\x97n\x82?'
tRp229
sg16
g204
sg18
F0.10000000000000001
sg19
I30
sg20
g217
sg22
F0.10000000000000001
sa(dp230
g8
I50
sg9
g219
sg13
I200
sg14
g10
(g11
S'<\xdfO\x8d\x97n\x82?'
tRp231
sg16
g204
sg18
F0.10000000000000001
sg19
I30
sg20
g221
sg22
F0.10000000000000001
sa(dp232
g8
I50
sg9
g202
sg13
I200
sg14
g10
(g11
S'{\x14\xaeG\xe1z\x84?'
tRp233
sg16
g204
sg18
F0.10000000000000001
sg19
I30
sg20
g205
sg22
F0.10000000000000001
sa(dp234
g8
I50
sg9
g207
sg13
I200
sg14
g10
(g11
S'{\x14\xaeG\xe1z\x84?'
tRp235
sg16
g204
sg18
F0.10000000000000001
sg19
I30
sg20
g209
sg22
F0.10000000000000001
sa(dp236
g8
I50
sg9
g211
sg13
I200
sg14
g10
(g11
S'{\x14\xaeG\xe1z\x84?'
tRp237
sg16
g204
sg18
F0.10000000000000001
sg19
I30
sg20
g213
sg22
F0.10000000000000001
sa(dp238
g8
I50
sg9
g215
sg13
I200
sg14
g10
(g11
S'{\x14\xaeG\xe1z\x84?'
tRp239
sg16
g204
sg18
F0.10000000000000001
sg19
I30
sg20
g217
sg22
F0.10000000000000001
sa(dp240
g8
I50
sg9
g219
sg13
I200
sg14
g10
(g11
S'{\x14\xaeG\xe1z\x84?'
tRp241
sg16
g204
sg18
F0.10000000000000001
sg19
I30
sg20
g221
sg22
F0.10000000000000001
sa(dp242
g8
I50
sg9
g202
sg13
I200
sg14
g10
(g11
S'\xbaI\x0c\x02+\x87\x86?'
tRp243
sg16
g204
sg18
F0.10000000000000001
sg19
I30
sg20
g205
sg22
F0.10000000000000001
sa(dp244
g8
I50
sg9
g207
sg13
I200
sg14
g10
(g11
S'\xbaI\x0c\x02+\x87\x86?'
tRp245
sg16
g204
sg18
F0.10000000000000001
sg19
I30
sg20
g209
sg22
F0.10000000000000001
sa(dp246
g8
I50
sg9
g211
sg13
I200
sg14
g10
(g11
S'\xbaI\x0c\x02+\x87\x86?'
tRp247
sg16
g204
sg18
F0.10000000000000001
sg19
I30
sg20
g213
sg22
F0.10000000000000001
sa(dp248
g8
I50
sg9
g215
sg13
I200
sg14
g10
(g11
S'\xbaI\x0c\x02+\x87\x86?'
tRp249
sg16
g204
sg18
F0.10000000000000001
sg19
I30
sg20
g217
sg22
F0.10000000000000001
sa(dp250
g8
I50
sg9
g219
sg13
I200
sg14
g10
(g11
S'\xbaI\x0c\x02+\x87\x86?'
tRp251
sg16
g204
sg18
F0.10000000000000001
sg19
I30
sg20
g221
sg22
F0.10000000000000001
sa(dp252
g8
I50
sg9
g202
sg13
I200
sg14
g10
(g11
S'\xfa~j\xbct\x93\x88?'
tRp253
sg16
g204
sg18
F0.10000000000000001
sg19
I30
sg20
g205
sg22
F0.10000000000000001
sa(dp254
g8
I50
sg9
g207
sg13
I200
sg14
g10
(g11
S'\xfa~j\xbct\x93\x88?'
tRp255
sg16
g204
sg18
F0.10000000000000001
sg19
I30
sg20
g209
sg22
F0.10000000000000001
sa(dp256
g8
I50
sg9
g211
sg13
I200
sg14
g10
(g11
S'\xfa~j\xbct\x93\x88?'
tRp257
sg16
g204
sg18
F0.10000000000000001
sg19
I30
sg20
g213
sg22
F0.10000000000000001
sa(dp258
g8
I50
sg9
g215
sg13
I200
sg14
g10
(g11
S'\xfa~j\xbct\x93\x88?'
tRp259
sg16
g204
sg18
F0.10000000000000001
sg19
I30
sg20
g217
sg22
F0.10000000000000001
sa(dp260
g8
I50
sg9
g219
sg13
I200
sg14
g10
(g11
S'\xfa~j\xbct\x93\x88?'
tRp261
sg16
g204
sg18
F0.10000000000000001
sg19
I30
sg20
g221
sg22
F0.10000000000000001
sa(dp262
g8
I50
sg9
g10
(g11
S'\xfa~j\xbct\x93h?'
tRp263
sg13
I200
sg14
g10
(g11
S'\xfc\xa9\xf1\xd2Mb\x80?'
tRp264
sg16
g10
(g11
S'\x00\x00\x00\x00\x00\x00D@'
tRp265
sg18
F0.10000000000000001
sg19
I30
sg20
g10
(g11
S'\x00\x00\x00\x00\x00\x004@'
tRp266
sg22
F0.10000000000000001
sa(dp267
g8
I50
sg9
g10
(g11
S'\xfa~j\xbct\x93h?'
tRp268
sg13
I200
sg14
g10
(g11
S'\xfc\xa9\xf1\xd2Mb\x80?'
tRp269
sg16
g265
sg18
F0.10000000000000001
sg19
I30
sg20
g10
(g11
S'\x00\x00\x00\x00\x00\x009@'
tRp270
sg22
F0.10000000000000001
sa(dp271
g8
I50
sg9
g10
(g11
S'\xfa~j\xbct\x93h?'
tRp272
sg13
I200
sg14
g10
(g11
S'\xfc\xa9\xf1\xd2Mb\x80?'
tRp273
sg16
g265
sg18
F0.10000000000000001
sg19
I30
sg20
g10
(g11
S'\x00\x00\x00\x00\x00\x00>@'
tRp274
sg22
F0.10000000000000001
sa(dp275
g8
I50
sg9
g10
(g11
S'\xfa~j\xbct\x93h?'
tRp276
sg13
I200
sg14
g10
(g11
S'\xfc\xa9\xf1\xd2Mb\x80?'
tRp277
sg16
g265
sg18
F0.10000000000000001
sg19
I30
sg20
g10
(g11
S'\x00\x00\x00\x00\x00\x80A@'
tRp278
sg22
F0.10000000000000001
sa(dp279
g8
I50
sg9
g10
(g11
S'\xfa~j\xbct\x93h?'
tRp280
sg13
I200
sg14
g10
(g11
S'\xfc\xa9\xf1\xd2Mb\x80?'
tRp281
sg16
g265
sg18
F0.10000000000000001
sg19
I30
sg20
g10
(g11
S'\x00\x00\x00\x00\x00\x00D@'
tRp282
sg22
F0.10000000000000001
sa(dp283
g8
I50
sg9
g263
sg13
I200
sg14
g10
(g11
S'<\xdfO\x8d\x97n\x82?'
tRp284
sg16
g265
sg18
F0.10000000000000001
sg19
I30
sg20
g266
sg22
F0.10000000000000001
sa(dp285
g8
I50
sg9
g268
sg13
I200
sg14
g10
(g11
S'<\xdfO\x8d\x97n\x82?'
tRp286
sg16
g265
sg18
F0.10000000000000001
sg19
I30
sg20
g270
sg22
F0.10000000000000001
sa(dp287
g8
I50
sg9
g272
sg13
I200
sg14
g10
(g11
S'<\xdfO\x8d\x97n\x82?'
tRp288
sg16
g265
sg18
F0.10000000000000001
sg19
I30
sg20
g274
sg22
F0.10000000000000001
sa(dp289
g8
I50
sg9
g276
sg13
I200
sg14
g10
(g11
S'<\xdfO\x8d\x97n\x82?'
tRp290
sg16
g265
sg18
F0.10000000000000001
sg19
I30
sg20
g278
sg22
F0.10000000000000001
sa(dp291
g8
I50
sg9
g280
sg13
I200
sg14
g10
(g11
S'<\xdfO\x8d\x97n\x82?'
tRp292
sg16
g265
sg18
F0.10000000000000001
sg19
I30
sg20
g282
sg22
F0.10000000000000001
sa(dp293
g8
I50
sg9
g263
sg13
I200
sg14
g10
(g11
S'{\x14\xaeG\xe1z\x84?'
tRp294
sg16
g265
sg18
F0.10000000000000001
sg19
I30
sg20
g266
sg22
F0.10000000000000001
sa(dp295
g8
I50
sg9
g268
sg13
I200
sg14
g10
(g11
S'{\x14\xaeG\xe1z\x84?'
tRp296
sg16
g265
sg18
F0.10000000000000001
sg19
I30
sg20
g270
sg22
F0.10000000000000001
sa(dp297
g8
I50
sg9
g272
sg13
I200
sg14
g10
(g11
S'{\x14\xaeG\xe1z\x84?'
tRp298
sg16
g265
sg18
F0.10000000000000001
sg19
I30
sg20
g274
sg22
F0.10000000000000001
sa(dp299
g8
I50
sg9
g276
sg13
I200
sg14
g10
(g11
S'{\x14\xaeG\xe1z\x84?'
tRp300
sg16
g265
sg18
F0.10000000000000001
sg19
I30
sg20
g278
sg22
F0.10000000000000001
sa(dp301
g8
I50
sg9
g280
sg13
I200
sg14
g10
(g11
S'{\x14\xaeG\xe1z\x84?'
tRp302
sg16
g265
sg18
F0.10000000000000001
sg19
I30
sg20
g282
sg22
F0.10000000000000001
sa(dp303
g8
I50
sg9
g263
sg13
I200
sg14
g10
(g11
S'\xbaI\x0c\x02+\x87\x86?'
tRp304
sg16
g265
sg18
F0.10000000000000001
sg19
I30
sg20
g266
sg22
F0.10000000000000001
sa(dp305
g8
I50
sg9
g268
sg13
I200
sg14
g10
(g11
S'\xbaI\x0c\x02+\x87\x86?'
tRp306
sg16
g265
sg18
F0.10000000000000001
sg19
I30
sg20
g270
sg22
F0.10000000000000001
sa(dp307
g8
I50
sg9
g272
sg13
I200
sg14
g10
(g11
S'\xbaI\x0c\x02+\x87\x86?'
tRp308
sg16
g265
sg18
F0.10000000000000001
sg19
I30
sg20
g274
sg22
F0.10000000000000001
sa(dp309
g8
I50
sg9
g276
sg13
I200
sg14
g10
(g11
S'\xbaI\x0c\x02+\x87\x86?'
tRp310
sg16
g265
sg18
F0.10000000000000001
sg19
I30
sg20
g278
sg22
F0.10000000000000001
sa(dp311
g8
I50
sg9
g280
sg13
I200
sg14
g10
(g11
S'\xbaI\x0c\x02+\x87\x86?'
tRp312
sg16
g265
sg18
F0.10000000000000001
sg19
I30
sg20
g282
sg22
F0.10000000000000001
sa(dp313
g8
I50
sg9
g263
sg13
I200
sg14
g10
(g11
S'\xfa~j\xbct\x93\x88?'
tRp314
sg16
g265
sg18
F0.10000000000000001
sg19
I30
sg20
g266
sg22
F0.10000000000000001
sa(dp315
g8
I50
sg9
g268
sg13
I200
sg14
g10
(g11
S'\xfa~j\xbct\x93\x88?'
tRp316
sg16
g265
sg18
F0.10000000000000001
sg19
I30
sg20
g270
sg22
F0.10000000000000001
sa(dp317
g8
I50
sg9
g272
sg13
I200
sg14
g10
(g11
S'\xfa~j\xbct\x93\x88?'
tRp318
sg16
g265
sg18
F0.10000000000000001
sg19
I30
sg20
g274
sg22
F0.10000000000000001
sa(dp319
g8
I50
sg9
g276
sg13
I200
sg14
g10
(g11
S'\xfa~j\xbct\x93\x88?'
tRp320
sg16
g265
sg18
F0.10000000000000001
sg19
I30
sg20
g278
sg22
F0.10000000000000001
sa(dp321
g8
I50
sg9
g280
sg13
I200
sg14
g10
(g11
S'\xfa~j\xbct\x93\x88?'
tRp322
sg16
g265
sg18
F0.10000000000000001
sg19
I30
sg20
g282
sg22
F0.10000000000000001
sa(dp323
g8
I50
sg9
g10
(g11
S'\xfc\xa9\xf1\xd2Mbp?'
tRp324
sg13
I200
sg14
g10
(g11
S'\xfc\xa9\xf1\xd2Mb\x80?'
tRp325
sg16
g17
sg18
F0.10000000000000001
sg19
I30
sg20
g21
sg22
F0.10000000000000001
sa(dp326
g8
I50
sg9
g10
(g11
S'\xfc\xa9\xf1\xd2Mbp?'
tRp327
sg13
I200
sg14
g10
(g11
S'\xfc\xa9\xf1\xd2Mb\x80?'
tRp328
sg16
g17
sg18
F0.10000000000000001
sg19
I30
sg20
g26
sg22
F0.10000000000000001
sa(dp329
g8
I50
sg9
g10
(g11
S'\xfc\xa9\xf1\xd2Mbp?'
tRp330
sg13
I200
sg14
g10
(g11
S'\xfc\xa9\xf1\xd2Mb\x80?'
tRp331
sg16
g17
sg18
F0.10000000000000001
sg19
I30
sg20
g30
sg22
F0.10000000000000001
sa(dp332
g8
I50
sg9
g10
(g11
S'\xfc\xa9\xf1\xd2Mbp?'
tRp333
sg13
I200
sg14
g10
(g11
S'\xfc\xa9\xf1\xd2Mb\x80?'
tRp334
sg16
g17
sg18
F0.10000000000000001
sg19
I30
sg20
g34
sg22
F0.10000000000000001
sa(dp335
g8
I50
sg9
g10
(g11
S'\xfc\xa9\xf1\xd2Mbp?'
tRp336
sg13
I200
sg14
g10
(g11
S'\xfc\xa9\xf1\xd2Mb\x80?'
tRp337
sg16
g17
sg18
F0.10000000000000001
sg19
I30
sg20
g38
sg22
F0.10000000000000001
sa(dp338
g8
I50
sg9
g324
sg13
I200
sg14
g10
(g11
S'<\xdfO\x8d\x97n\x82?'
tRp339
sg16
g17
sg18
F0.10000000000000001
sg19
I30
sg20
g21
sg22
F0.10000000000000001
sa(dp340
g8
I50
sg9
g327
sg13
I200
sg14
g10
(g11
S'<\xdfO\x8d\x97n\x82?'
tRp341
sg16
g17
sg18
F0.10000000000000001
sg19
I30
sg20
g26
sg22
F0.10000000000000001
sa(dp342
g8
I50
sg9
g330
sg13
I200
sg14
g10
(g11
S'<\xdfO\x8d\x97n\x82?'
tRp343
sg16
g17
sg18
F0.10000000000000001
sg19
I30
sg20
g30
sg22
F0.10000000000000001
sa(dp344
g8
I50
sg9
g333
sg13
I200
sg14
g10
(g11
S'<\xdfO\x8d\x97n\x82?'
tRp345
sg16
g17
sg18
F0.10000000000000001
sg19
I30
sg20
g34
sg22
F0.10000000000000001
sa(dp346
g8
I50
sg9
g336
sg13
I200
sg14
g10
(g11
S'<\xdfO\x8d\x97n\x82?'
tRp347
sg16
g17
sg18
F0.10000000000000001
sg19
I30
sg20
g38
sg22
F0.10000000000000001
sa(dp348
g8
I50
sg9
g324
sg13
I200
sg14
g10
(g11
S'{\x14\xaeG\xe1z\x84?'
tRp349
sg16
g17
sg18
F0.10000000000000001
sg19
I30
sg20
g21
sg22
F0.10000000000000001
sa(dp350
g8
I50
sg9
g327
sg13
I200
sg14
g10
(g11
S'{\x14\xaeG\xe1z\x84?'
tRp351
sg16
g17
sg18
F0.10000000000000001
sg19
I30
sg20
g26
sg22
F0.10000000000000001
sa(dp352
g8
I50
sg9
g330
sg13
I200
sg14
g10
(g11
S'{\x14\xaeG\xe1z\x84?'
tRp353
sg16
g17
sg18
F0.10000000000000001
sg19
I30
sg20
g30
sg22
F0.10000000000000001
sa(dp354
g8
I50
sg9
g333
sg13
I200
sg14
g10
(g11
S'{\x14\xaeG\xe1z\x84?'
tRp355
sg16
g17
sg18
F0.10000000000000001
sg19
I30
sg20
g34
sg22
F0.10000000000000001
sa(dp356
g8
I50
sg9
g336
sg13
I200
sg14
g10
(g11
S'{\x14\xaeG\xe1z\x84?'
tRp357
sg16
g17
sg18
F0.10000000000000001
sg19
I30
sg20
g38
sg22
F0.10000000000000001
sa(dp358
g8
I50
sg9
g324
sg13
I200
sg14
g10
(g11
S'\xbaI\x0c\x02+\x87\x86?'
tRp359
sg16
g17
sg18
F0.10000000000000001
sg19
I30
sg20
g21
sg22
F0.10000000000000001
sa(dp360
g8
I50
sg9
g327
sg13
I200
sg14
g10
(g11
S'\xbaI\x0c\x02+\x87\x86?'
tRp361
sg16
g17
sg18
F0.10000000000000001
sg19
I30
sg20
g26
sg22
F0.10000000000000001
sa(dp362
g8
I50
sg9
g330
sg13
I200
sg14
g10
(g11
S'\xbaI\x0c\x02+\x87\x86?'
tRp363
sg16
g17
sg18
F0.10000000000000001
sg19
I30
sg20
g30
sg22
F0.10000000000000001
sa(dp364
g8
I50
sg9
g333
sg13
I200
sg14
g10
(g11
S'\xbaI\x0c\x02+\x87\x86?'
tRp365
sg16
g17
sg18
F0.10000000000000001
sg19
I30
sg20
g34
sg22
F0.10000000000000001
sa(dp366
g8
I50
sg9
g336
sg13
I200
sg14
g10
(g11
S'\xbaI\x0c\x02+\x87\x86?'
tRp367
sg16
g17
sg18
F0.10000000000000001
sg19
I30
sg20
g38
sg22
F0.10000000000000001
sa(dp368
g8
I50
sg9
g324
sg13
I200
sg14
g10
(g11
S'\xfa~j\xbct\x93\x88?'
tRp369
sg16
g17
sg18
F0.10000000000000001
sg19
I30
sg20
g21
sg22
F0.10000000000000001
sa(dp370
g8
I50
sg9
g327
sg13
I200
sg14
g10
(g11
S'\xfa~j\xbct\x93\x88?'
tRp371
sg16
g17
sg18
F0.10000000000000001
sg19
I30
sg20
g26
sg22
F0.10000000000000001
sa(dp372
g8
I50
sg9
g330
sg13
I200
sg14
g10
(g11
S'\xfa~j\xbct\x93\x88?'
tRp373
sg16
g17
sg18
F0.10000000000000001
sg19
I30
sg20
g30
sg22
F0.10000000000000001
sa(dp374
g8
I50
sg9
g333
sg13
I200
sg14
g10
(g11
S'\xfa~j\xbct\x93\x88?'
tRp375
sg16
g17
sg18
F0.10000000000000001
sg19
I30
sg20
g34
sg22
F0.10000000000000001
sa(dp376
g8
I50
sg9
g336
sg13
I200
sg14
g10
(g11
S'\xfa~j\xbct\x93\x88?'
tRp377
sg16
g17
sg18
F0.10000000000000001
sg19
I30
sg20
g38
sg22
F0.10000000000000001
sa(dp378
g8
I50
sg9
g10
(g11
S'\xfc\xa9\xf1\xd2Mbp?'
tRp379
sg13
I200
sg14
g10
(g11
S'\xfc\xa9\xf1\xd2Mb\x80?'
tRp380
sg16
g82
sg18
F0.10000000000000001
sg19
I30
sg20
g83
sg22
F0.10000000000000001
sa(dp381
g8
I50
sg9
g10
(g11
S'\xfc\xa9\xf1\xd2Mbp?'
tRp382
sg13
I200
sg14
g10
(g11
S'\xfc\xa9\xf1\xd2Mb\x80?'
tRp383
sg16
g82
sg18
F0.10000000000000001
sg19
I30
sg20
g87
sg22
F0.10000000000000001
sa(dp384
g8
I50
sg9
g10
(g11
S'\xfc\xa9\xf1\xd2Mbp?'
tRp385
sg13
I200
sg14
g10
(g11
S'\xfc\xa9\xf1\xd2Mb\x80?'
tRp386
sg16
g82
sg18
F0.10000000000000001
sg19
I30
sg20
g91
sg22
F0.10000000000000001
sa(dp387
g8
I50
sg9
g10
(g11
S'\xfc\xa9\xf1\xd2Mbp?'
tRp388
sg13
I200
sg14
g10
(g11
S'\xfc\xa9\xf1\xd2Mb\x80?'
tRp389
sg16
g82
sg18
F0.10000000000000001
sg19
I30
sg20
g95
sg22
F0.10000000000000001
sa(dp390
g8
I50
sg9
g10
(g11
S'\xfc\xa9\xf1\xd2Mbp?'
tRp391
sg13
I200
sg14
g10
(g11
S'\xfc\xa9\xf1\xd2Mb\x80?'
tRp392
sg16
g82
sg18
F0.10000000000000001
sg19
I30
sg20
g99
sg22
F0.10000000000000001
sa(dp393
g8
I50
sg9
g379
sg13
I200
sg14
g10
(g11
S'<\xdfO\x8d\x97n\x82?'
tRp394
sg16
g82
sg18
F0.10000000000000001
sg19
I30
sg20
g83
sg22
F0.10000000000000001
sa(dp395
g8
I50
sg9
g382
sg13
I200
sg14
g10
(g11
S'<\xdfO\x8d\x97n\x82?'
tRp396
sg16
g82
sg18
F0.10000000000000001
sg19
I30
sg20
g87
sg22
F0.10000000000000001
sa(dp397
g8
I50
sg9
g385
sg13
I200
sg14
g10
(g11
S'<\xdfO\x8d\x97n\x82?'
tRp398
sg16
g82
sg18
F0.10000000000000001
sg19
I30
sg20
g91
sg22
F0.10000000000000001
sa(dp399
g8
I50
sg9
g388
sg13
I200
sg14
g10
(g11
S'<\xdfO\x8d\x97n\x82?'
tRp400
sg16
g82
sg18
F0.10000000000000001
sg19
I30
sg20
g95
sg22
F0.10000000000000001
sa(dp401
g8
I50
sg9
g391
sg13
I200
sg14
g10
(g11
S'<\xdfO\x8d\x97n\x82?'
tRp402
sg16
g82
sg18
F0.10000000000000001
sg19
I30
sg20
g99
sg22
F0.10000000000000001
sa(dp403
g8
I50
sg9
g379
sg13
I200
sg14
g10
(g11
S'{\x14\xaeG\xe1z\x84?'
tRp404
sg16
g82
sg18
F0.10000000000000001
sg19
I30
sg20
g83
sg22
F0.10000000000000001
sa(dp405
g8
I50
sg9
g382
sg13
I200
sg14
g10
(g11
S'{\x14\xaeG\xe1z\x84?'
tRp406
sg16
g82
sg18
F0.10000000000000001
sg19
I30
sg20
g87
sg22
F0.10000000000000001
sa(dp407
g8
I50
sg9
g385
sg13
I200
sg14
g10
(g11
S'{\x14\xaeG\xe1z\x84?'
tRp408
sg16
g82
sg18
F0.10000000000000001
sg19
I30
sg20
g91
sg22
F0.10000000000000001
sa(dp409
g8
I50
sg9
g388
sg13
I200
sg14
g10
(g11
S'{\x14\xaeG\xe1z\x84?'
tRp410
sg16
g82
sg18
F0.10000000000000001
sg19
I30
sg20
g95
sg22
F0.10000000000000001
sa(dp411
g8
I50
sg9
g391
sg13
I200
sg14
g10
(g11
S'{\x14\xaeG\xe1z\x84?'
tRp412
sg16
g82
sg18
F0.10000000000000001
sg19
I30
sg20
g99
sg22
F0.10000000000000001
sa(dp413
g8
I50
sg9
g379
sg13
I200
sg14
g10
(g11
S'\xbaI\x0c\x02+\x87\x86?'
tRp414
sg16
g82
sg18
F0.10000000000000001
sg19
I30
sg20
g83
sg22
F0.10000000000000001
sa(dp415
g8
I50
sg9
g382
sg13
I200
sg14
g10
(g11
S'\xbaI\x0c\x02+\x87\x86?'
tRp416
sg16
g82
sg18
F0.10000000000000001
sg19
I30
sg20
g87
sg22
F0.10000000000000001
sa(dp417
g8
I50
sg9
g385
sg13
I200
sg14
g10
(g11
S'\xbaI\x0c\x02+\x87\x86?'
tRp418
sg16
g82
sg18
F0.10000000000000001
sg19
I30
sg20
g91
sg22
F0.10000000000000001
sa(dp419
g8
I50
sg9
g388
sg13
I200
sg14
g10
(g11
S'\xbaI\x0c\x02+\x87\x86?'
tRp420
sg16
g82
sg18
F0.10000000000000001
sg19
I30
sg20
g95
sg22
F0.10000000000000001
sa(dp421
g8
I50
sg9
g391
sg13
I200
sg14
g10
(g11
S'\xbaI\x0c\x02+\x87\x86?'
tRp422
sg16
g82
sg18
F0.10000000000000001
sg19
I30
sg20
g99
sg22
F0.10000000000000001
sa(dp423
g8
I50
sg9
g379
sg13
I200
sg14
g10
(g11
S'\xfa~j\xbct\x93\x88?'
tRp424
sg16
g82
sg18
F0.10000000000000001
sg19
I30
sg20
g83
sg22
F0.10000000000000001
sa(dp425
g8
I50
sg9
g382
sg13
I200
sg14
g10
(g11
S'\xfa~j\xbct\x93\x88?'
tRp426
sg16
g82
sg18
F0.10000000000000001
sg19
I30
sg20
g87
sg22
F0.10000000000000001
sa(dp427
g8
I50
sg9
g385
sg13
I200
sg14
g10
(g11
S'\xfa~j\xbct\x93\x88?'
tRp428
sg16
g82
sg18
F0.10000000000000001
sg19
I30
sg20
g91
sg22
F0.10000000000000001
sa(dp429
g8
I50
sg9
g388
sg13
I200
sg14
g10
(g11
S'\xfa~j\xbct\x93\x88?'
tRp430
sg16
g82
sg18
F0.10000000000000001
sg19
I30
sg20
g95
sg22
F0.10000000000000001
sa(dp431
g8
I50
sg9
g391
sg13
I200
sg14
g10
(g11
S'\xfa~j\xbct\x93\x88?'
tRp432
sg16
g82
sg18
F0.10000000000000001
sg19
I30
sg20
g99
sg22
F0.10000000000000001
sa(dp433
g8
I50
sg9
g10
(g11
S'\xfc\xa9\xf1\xd2Mbp?'
tRp434
sg13
I200
sg14
g10
(g11
S'\xfc\xa9\xf1\xd2Mb\x80?'
tRp435
sg16
g143
sg18
F0.10000000000000001
sg19
I30
sg20
g144
sg22
F0.10000000000000001
sa(dp436
g8
I50
sg9
g10
(g11
S'\xfc\xa9\xf1\xd2Mbp?'
tRp437
sg13
I200
sg14
g10
(g11
S'\xfc\xa9\xf1\xd2Mb\x80?'
tRp438
sg16
g143
sg18
F0.10000000000000001
sg19
I30
sg20
g148
sg22
F0.10000000000000001
sa(dp439
g8
I50
sg9
g10
(g11
S'\xfc\xa9\xf1\xd2Mbp?'
tRp440
sg13
I200
sg14
g10
(g11
S'\xfc\xa9\xf1\xd2Mb\x80?'
tRp441
sg16
g143
sg18
F0.10000000000000001
sg19
I30
sg20
g152
sg22
F0.10000000000000001
sa(dp442
g8
I50
sg9
g10
(g11
S'\xfc\xa9\xf1\xd2Mbp?'
tRp443
sg13
I200
sg14
g10
(g11
S'\xfc\xa9\xf1\xd2Mb\x80?'
tRp444
sg16
g143
sg18
F0.10000000000000001
sg19
I30
sg20
g156
sg22
F0.10000000000000001
sa(dp445
g8
I50
sg9
g10
(g11
S'\xfc\xa9\xf1\xd2Mbp?'
tRp446
sg13
I200
sg14
g10
(g11
S'\xfc\xa9\xf1\xd2Mb\x80?'
tRp447
sg16
g143
sg18
F0.10000000000000001
sg19
I30
sg20
g160
sg22
F0.10000000000000001
sa(dp448
g8
I50
sg9
g434
sg13
I200
sg14
g10
(g11
S'<\xdfO\x8d\x97n\x82?'
tRp449
sg16
g143
sg18
F0.10000000000000001
sg19
I30
sg20
g144
sg22
F0.10000000000000001
sa(dp450
g8
I50
sg9
g437
sg13
I200
sg14
g10
(g11
S'<\xdfO\x8d\x97n\x82?'
tRp451
sg16
g143
sg18
F0.10000000000000001
sg19
I30
sg20
g148
sg22
F0.10000000000000001
sa(dp452
g8
I50
sg9
g440
sg13
I200
sg14
g10
(g11
S'<\xdfO\x8d\x97n\x82?'
tRp453
sg16
g143
sg18
F0.10000000000000001
sg19
I30
sg20
g152
sg22
F0.10000000000000001
sa(dp454
g8
I50
sg9
g443
sg13
I200
sg14
g10
(g11
S'<\xdfO\x8d\x97n\x82?'
tRp455
sg16
g143
sg18
F0.10000000000000001
sg19
I30
sg20
g156
sg22
F0.10000000000000001
sa(dp456
g8
I50
sg9
g446
sg13
I200
sg14
g10
(g11
S'<\xdfO\x8d\x97n\x82?'
tRp457
sg16
g143
sg18
F0.10000000000000001
sg19
I30
sg20
g160
sg22
F0.10000000000000001
sa(dp458
g8
I50
sg9
g434
sg13
I200
sg14
g10
(g11
S'{\x14\xaeG\xe1z\x84?'
tRp459
sg16
g143
sg18
F0.10000000000000001
sg19
I30
sg20
g144
sg22
F0.10000000000000001
sa(dp460
g8
I50
sg9
g437
sg13
I200
sg14
g10
(g11
S'{\x14\xaeG\xe1z\x84?'
tRp461
sg16
g143
sg18
F0.10000000000000001
sg19
I30
sg20
g148
sg22
F0.10000000000000001
sa(dp462
g8
I50
sg9
g440
sg13
I200
sg14
g10
(g11
S'{\x14\xaeG\xe1z\x84?'
tRp463
sg16
g143
sg18
F0.10000000000000001
sg19
I30
sg20
g152
sg22
F0.10000000000000001
sa(dp464
g8
I50
sg9
g443
sg13
I200
sg14
g10
(g11
S'{\x14\xaeG\xe1z\x84?'
tRp465
sg16
g143
sg18
F0.10000000000000001
sg19
I30
sg20
g156
sg22
F0.10000000000000001
sa(dp466
g8
I50
sg9
g446
sg13
I200
sg14
g10
(g11
S'{\x14\xaeG\xe1z\x84?'
tRp467
sg16
g143
sg18
F0.10000000000000001
sg19
I30
sg20
g160
sg22
F0.10000000000000001
sa(dp468
g8
I50
sg9
g434
sg13
I200
sg14
g10
(g11
S'\xbaI\x0c\x02+\x87\x86?'
tRp469
sg16
g143
sg18
F0.10000000000000001
sg19
I30
sg20
g144
sg22
F0.10000000000000001
sa(dp470
g8
I50
sg9
g437
sg13
I200
sg14
g10
(g11
S'\xbaI\x0c\x02+\x87\x86?'
tRp471
sg16
g143
sg18
F0.10000000000000001
sg19
I30
sg20
g148
sg22
F0.10000000000000001
sa(dp472
g8
I50
sg9
g440
sg13
I200
sg14
g10
(g11
S'\xbaI\x0c\x02+\x87\x86?'
tRp473
sg16
g143
sg18
F0.10000000000000001
sg19
I30
sg20
g152
sg22
F0.10000000000000001
sa(dp474
g8
I50
sg9
g443
sg13
I200
sg14
g10
(g11
S'\xbaI\x0c\x02+\x87\x86?'
tRp475
sg16
g143
sg18
F0.10000000000000001
sg19
I30
sg20
g156
sg22
F0.10000000000000001
sa(dp476
g8
I50
sg9
g446
sg13
I200
sg14
g10
(g11
S'\xbaI\x0c\x02+\x87\x86?'
tRp477
sg16
g143
sg18
F0.10000000000000001
sg19
I30
sg20
g160
sg22
F0.10000000000000001
sa(dp478
g8
I50
sg9
g434
sg13
I200
sg14
g10
(g11
S'\xfa~j\xbct\x93\x88?'
tRp479
sg16
g143
sg18
F0.10000000000000001
sg19
I30
sg20
g144
sg22
F0.10000000000000001
sa(dp480
g8
I50
sg9
g437
sg13
I200
sg14
g10
(g11
S'\xfa~j\xbct\x93\x88?'
tRp481
sg16
g143
sg18
F0.10000000000000001
sg19
I30
sg20
g148
sg22
F0.10000000000000001
sa(dp482
g8
I50
sg9
g440
sg13
I200
sg14
g10
(g11
S'\xfa~j\xbct\x93\x88?'
tRp483
sg16
g143
sg18
F0.10000000000000001
sg19
I30
sg20
g152
sg22
F0.10000000000000001
sa(dp484
g8
I50
sg9
g443
sg13
I200
sg14
g10
(g11
S'\xfa~j\xbct\x93\x88?'
tRp485
sg16
g143
sg18
F0.10000000000000001
sg19
I30
sg20
g156
sg22
F0.10000000000000001
sa(dp486
g8
I50
sg9
g446
sg13
I200
sg14
g10
(g11
S'\xfa~j\xbct\x93\x88?'
tRp487
sg16
g143
sg18
F0.10000000000000001
sg19
I30
sg20
g160
sg22
F0.10000000000000001
sa(dp488
g8
I50
sg9
g10
(g11
S'\xfc\xa9\xf1\xd2Mbp?'
tRp489
sg13
I200
sg14
g10
(g11
S'\xfc\xa9\xf1\xd2Mb\x80?'
tRp490
sg16
g204
sg18
F0.10000000000000001
sg19
I30
sg20
g205
sg22
F0.10000000000000001
sa(dp491
g8
I50
sg9
g10
(g11
S'\xfc\xa9\xf1\xd2Mbp?'
tRp492
sg13
I200
sg14
g10
(g11
S'\xfc\xa9\xf1\xd2Mb\x80?'
tRp493
sg16
g204
sg18
F0.10000000000000001
sg19
I30
sg20
g209
sg22
F0.10000000000000001
sa(dp494
g8
I50
sg9
g10
(g11
S'\xfc\xa9\xf1\xd2Mbp?'
tRp495
sg13
I200
sg14
g10
(g11
S'\xfc\xa9\xf1\xd2Mb\x80?'
tRp496
sg16
g204
sg18
F0.10000000000000001
sg19
I30
sg20
g213
sg22
F0.10000000000000001
sa(dp497
g8
I50
sg9
g10
(g11
S'\xfc\xa9\xf1\xd2Mbp?'
tRp498
sg13
I200
sg14
g10
(g11
S'\xfc\xa9\xf1\xd2Mb\x80?'
tRp499
sg16
g204
sg18
F0.10000000000000001
sg19
I30
sg20
g217
sg22
F0.10000000000000001
sa(dp500
g8
I50
sg9
g10
(g11
S'\xfc\xa9\xf1\xd2Mbp?'
tRp501
sg13
I200
sg14
g10
(g11
S'\xfc\xa9\xf1\xd2Mb\x80?'
tRp502
sg16
g204
sg18
F0.10000000000000001
sg19
I30
sg20
g221
sg22
F0.10000000000000001
sa(dp503
g8
I50
sg9
g489
sg13
I200
sg14
g10
(g11
S'<\xdfO\x8d\x97n\x82?'
tRp504
sg16
g204
sg18
F0.10000000000000001
sg19
I30
sg20
g205
sg22
F0.10000000000000001
sa(dp505
g8
I50
sg9
g492
sg13
I200
sg14
g10
(g11
S'<\xdfO\x8d\x97n\x82?'
tRp506
sg16
g204
sg18
F0.10000000000000001
sg19
I30
sg20
g209
sg22
F0.10000000000000001
sa(dp507
g8
I50
sg9
g495
sg13
I200
sg14
g10
(g11
S'<\xdfO\x8d\x97n\x82?'
tRp508
sg16
g204
sg18
F0.10000000000000001
sg19
I30
sg20
g213
sg22
F0.10000000000000001
sa(dp509
g8
I50
sg9
g498
sg13
I200
sg14
g10
(g11
S'<\xdfO\x8d\x97n\x82?'
tRp510
sg16
g204
sg18
F0.10000000000000001
sg19
I30
sg20
g217
sg22
F0.10000000000000001
sa(dp511
g8
I50
sg9
g501
sg13
I200
sg14
g10
(g11
S'<\xdfO\x8d\x97n\x82?'
tRp512
sg16
g204
sg18
F0.10000000000000001
sg19
I30
sg20
g221
sg22
F0.10000000000000001
sa(dp513
g8
I50
sg9
g489
sg13
I200
sg14
g10
(g11
S'{\x14\xaeG\xe1z\x84?'
tRp514
sg16
g204
sg18
F0.10000000000000001
sg19
I30
sg20
g205
sg22
F0.10000000000000001
sa(dp515
g8
I50
sg9
g492
sg13
I200
sg14
g10
(g11
S'{\x14\xaeG\xe1z\x84?'
tRp516
sg16
g204
sg18
F0.10000000000000001
sg19
I30
sg20
g209
sg22
F0.10000000000000001
sa(dp517
g8
I50
sg9
g495
sg13
I200
sg14
g10
(g11
S'{\x14\xaeG\xe1z\x84?'
tRp518
sg16
g204
sg18
F0.10000000000000001
sg19
I30
sg20
g213
sg22
F0.10000000000000001
sa(dp519
g8
I50
sg9
g498
sg13
I200
sg14
g10
(g11
S'{\x14\xaeG\xe1z\x84?'
tRp520
sg16
g204
sg18
F0.10000000000000001
sg19
I30
sg20
g217
sg22
F0.10000000000000001
sa(dp521
g8
I50
sg9
g501
sg13
I200
sg14
g10
(g11
S'{\x14\xaeG\xe1z\x84?'
tRp522
sg16
g204
sg18
F0.10000000000000001
sg19
I30
sg20
g221
sg22
F0.10000000000000001
sa(dp523
g8
I50
sg9
g489
sg13
I200
sg14
g10
(g11
S'\xbaI\x0c\x02+\x87\x86?'
tRp524
sg16
g204
sg18
F0.10000000000000001
sg19
I30
sg20
g205
sg22
F0.10000000000000001
sa(dp525
g8
I50
sg9
g492
sg13
I200
sg14
g10
(g11
S'\xbaI\x0c\x02+\x87\x86?'
tRp526
sg16
g204
sg18
F0.10000000000000001
sg19
I30
sg20
g209
sg22
F0.10000000000000001
sa(dp527
g8
I50
sg9
g495
sg13
I200
sg14
g10
(g11
S'\xbaI\x0c\x02+\x87\x86?'
tRp528
sg16
g204
sg18
F0.10000000000000001
sg19
I30
sg20
g213
sg22
F0.10000000000000001
sa(dp529
g8
I50
sg9
g498
sg13
I200
sg14
g10
(g11
S'\xbaI\x0c\x02+\x87\x86?'
tRp530
sg16
g204
sg18
F0.10000000000000001
sg19
I30
sg20
g217
sg22
F0.10000000000000001
sa(dp531
g8
I50
sg9
g501
sg13
I200
sg14
g10
(g11
S'\xbaI\x0c\x02+\x87\x86?'
tRp532
sg16
g204
sg18
F0.10000000000000001
sg19
I30
sg20
g221
sg22
F0.10000000000000001
sa(dp533
g8
I50
sg9
g489
sg13
I200
sg14
g10
(g11
S'\xfa~j\xbct\x93\x88?'
tRp534
sg16
g204
sg18
F0.10000000000000001
sg19
I30
sg20
g205
sg22
F0.10000000000000001
sa(dp535
g8
I50
sg9
g492
sg13
I200
sg14
g10
(g11
S'\xfa~j\xbct\x93\x88?'
tRp536
sg16
g204
sg18
F0.10000000000000001
sg19
I30
sg20
g209
sg22
F0.10000000000000001
sa(dp537
g8
I50
sg9
g495
sg13
I200
sg14
g10
(g11
S'\xfa~j\xbct\x93\x88?'
tRp538
sg16
g204
sg18
F0.10000000000000001
sg19
I30
sg20
g213
sg22
F0.10000000000000001
sa(dp539
g8
I50
sg9
g498
sg13
I200
sg14
g10
(g11
S'\xfa~j\xbct\x93\x88?'
tRp540
sg16
g204
sg18
F0.10000000000000001
sg19
I30
sg20
g217
sg22
F0.10000000000000001
sa(dp541
g8
I50
sg9
g501
sg13
I200
sg14
g10
(g11
S'\xfa~j\xbct\x93\x88?'
tRp542
sg16
g204
sg18
F0.10000000000000001
sg19
I30
sg20
g221
sg22
F0.10000000000000001
sa(dp543
g8
I50
sg9
g10
(g11
S'\xfc\xa9\xf1\xd2Mbp?'
tRp544
sg13
I200
sg14
g10
(g11
S'\xfc\xa9\xf1\xd2Mb\x80?'
tRp545
sg16
g265
sg18
F0.10000000000000001
sg19
I30
sg20
g266
sg22
F0.10000000000000001
sa(dp546
g8
I50
sg9
g10
(g11
S'\xfc\xa9\xf1\xd2Mbp?'
tRp547
sg13
I200
sg14
g10
(g11
S'\xfc\xa9\xf1\xd2Mb\x80?'
tRp548
sg16
g265
sg18
F0.10000000000000001
sg19
I30
sg20
g270
sg22
F0.10000000000000001
sa(dp549
g8
I50
sg9
g10
(g11
S'\xfc\xa9\xf1\xd2Mbp?'
tRp550
sg13
I200
sg14
g10
(g11
S'\xfc\xa9\xf1\xd2Mb\x80?'
tRp551
sg16
g265
sg18
F0.10000000000000001
sg19
I30
sg20
g274
sg22
F0.10000000000000001
sa(dp552
g8
I50
sg9
g10
(g11
S'\xfc\xa9\xf1\xd2Mbp?'
tRp553
sg13
I200
sg14
g10
(g11
S'\xfc\xa9\xf1\xd2Mb\x80?'
tRp554
sg16
g265
sg18
F0.10000000000000001
sg19
I30
sg20
g278
sg22
F0.10000000000000001
sa(dp555
g8
I50
sg9
g10
(g11
S'\xfc\xa9\xf1\xd2Mbp?'
tRp556
sg13
I200
sg14
g10
(g11
S'\xfc\xa9\xf1\xd2Mb\x80?'
tRp557
sg16
g265
sg18
F0.10000000000000001
sg19
I30
sg20
g282
sg22
F0.10000000000000001
sa(dp558
g8
I50
sg9
g544
sg13
I200
sg14
g10
(g11
S'<\xdfO\x8d\x97n\x82?'
tRp559
sg16
g265
sg18
F0.10000000000000001
sg19
I30
sg20
g266
sg22
F0.10000000000000001
sa(dp560
g8
I50
sg9
g547
sg13
I200
sg14
g10
(g11
S'<\xdfO\x8d\x97n\x82?'
tRp561
sg16
g265
sg18
F0.10000000000000001
sg19
I30
sg20
g270
sg22
F0.10000000000000001
sa(dp562
g8
I50
sg9
g550
sg13
I200
sg14
g10
(g11
S'<\xdfO\x8d\x97n\x82?'
tRp563
sg16
g265
sg18
F0.10000000000000001
sg19
I30
sg20
g274
sg22
F0.10000000000000001
sa(dp564
g8
I50
sg9
g553
sg13
I200
sg14
g10
(g11
S'<\xdfO\x8d\x97n\x82?'
tRp565
sg16
g265
sg18
F0.10000000000000001
sg19
I30
sg20
g278
sg22
F0.10000000000000001
sa(dp566
g8
I50
sg9
g556
sg13
I200
sg14
g10
(g11
S'<\xdfO\x8d\x97n\x82?'
tRp567
sg16
g265
sg18
F0.10000000000000001
sg19
I30
sg20
g282
sg22
F0.10000000000000001
sa(dp568
g8
I50
sg9
g544
sg13
I200
sg14
g10
(g11
S'{\x14\xaeG\xe1z\x84?'
tRp569
sg16
g265
sg18
F0.10000000000000001
sg19
I30
sg20
g266
sg22
F0.10000000000000001
sa(dp570
g8
I50
sg9
g547
sg13
I200
sg14
g10
(g11
S'{\x14\xaeG\xe1z\x84?'
tRp571
sg16
g265
sg18
F0.10000000000000001
sg19
I30
sg20
g270
sg22
F0.10000000000000001
sa(dp572
g8
I50
sg9
g550
sg13
I200
sg14
g10
(g11
S'{\x14\xaeG\xe1z\x84?'
tRp573
sg16
g265
sg18
F0.10000000000000001
sg19
I30
sg20
g274
sg22
F0.10000000000000001
sa(dp574
g8
I50
sg9
g553
sg13
I200
sg14
g10
(g11
S'{\x14\xaeG\xe1z\x84?'
tRp575
sg16
g265
sg18
F0.10000000000000001
sg19
I30
sg20
g278
sg22
F0.10000000000000001
sa(dp576
g8
I50
sg9
g556
sg13
I200
sg14
g10
(g11
S'{\x14\xaeG\xe1z\x84?'
tRp577
sg16
g265
sg18
F0.10000000000000001
sg19
I30
sg20
g282
sg22
F0.10000000000000001
sa(dp578
g8
I50
sg9
g544
sg13
I200
sg14
g10
(g11
S'\xbaI\x0c\x02+\x87\x86?'
tRp579
sg16
g265
sg18
F0.10000000000000001
sg19
I30
sg20
g266
sg22
F0.10000000000000001
sa(dp580
g8
I50
sg9
g547
sg13
I200
sg14
g10
(g11
S'\xbaI\x0c\x02+\x87\x86?'
tRp581
sg16
g265
sg18
F0.10000000000000001
sg19
I30
sg20
g270
sg22
F0.10000000000000001
sa(dp582
g8
I50
sg9
g550
sg13
I200
sg14
g10
(g11
S'\xbaI\x0c\x02+\x87\x86?'
tRp583
sg16
g265
sg18
F0.10000000000000001
sg19
I30
sg20
g274
sg22
F0.10000000000000001
sa(dp584
g8
I50
sg9
g553
sg13
I200
sg14
g10
(g11
S'\xbaI\x0c\x02+\x87\x86?'
tRp585
sg16
g265
sg18
F0.10000000000000001
sg19
I30
sg20
g278
sg22
F0.10000000000000001
sa(dp586
g8
I50
sg9
g556
sg13
I200
sg14
g10
(g11
S'\xbaI\x0c\x02+\x87\x86?'
tRp587
sg16
g265
sg18
F0.10000000000000001
sg19
I30
sg20
g282
sg22
F0.10000000000000001
sa(dp588
g8
I50
sg9
g544
sg13
I200
sg14
g10
(g11
S'\xfa~j\xbct\x93\x88?'
tRp589
sg16
g265
sg18
F0.10000000000000001
sg19
I30
sg20
g266
sg22
F0.10000000000000001
sa(dp590
g8
I50
sg9
g547
sg13
I200
sg14
g10
(g11
S'\xfa~j\xbct\x93\x88?'
tRp591
sg16
g265
sg18
F0.10000000000000001
sg19
I30
sg20
g270
sg22
F0.10000000000000001
sa(dp592
g8
I50
sg9
g550
sg13
I200
sg14
g10
(g11
S'\xfa~j\xbct\x93\x88?'
tRp593
sg16
g265
sg18
F0.10000000000000001
sg19
I30
sg20
g274
sg22
F0.10000000000000001
sa(dp594
g8
I50
sg9
g553
sg13
I200
sg14
g10
(g11
S'\xfa~j\xbct\x93\x88?'
tRp595
sg16
g265
sg18
F0.10000000000000001
sg19
I30
sg20
g278
sg22
F0.10000000000000001
sa(dp596
g8
I50
sg9
g556
sg13
I200
sg14
g10
(g11
S'\xfa~j\xbct\x93\x88?'
tRp597
sg16
g265
sg18
F0.10000000000000001
sg19
I30
sg20
g282
sg22
F0.10000000000000001
sa(dp598
g8
I50
sg9
g10
(g11
S'{\x14\xaeG\xe1zt?'
tRp599
sg13
I200
sg14
g10
(g11
S'\xfc\xa9\xf1\xd2Mb\x80?'
tRp600
sg16
g17
sg18
F0.10000000000000001
sg19
I30
sg20
g21
sg22
F0.10000000000000001
sa(dp601
g8
I50
sg9
g10
(g11
S'{\x14\xaeG\xe1zt?'
tRp602
sg13
I200
sg14
g10
(g11
S'\xfc\xa9\xf1\xd2Mb\x80?'
tRp603
sg16
g17
sg18
F0.10000000000000001
sg19
I30
sg20
g26
sg22
F0.10000000000000001
sa(dp604
g8
I50
sg9
g10
(g11
S'{\x14\xaeG\xe1zt?'
tRp605
sg13
I200
sg14
g10
(g11
S'\xfc\xa9\xf1\xd2Mb\x80?'
tRp606
sg16
g17
sg18
F0.10000000000000001
sg19
I30
sg20
g30
sg22
F0.10000000000000001
sa(dp607
g8
I50
sg9
g10
(g11
S'{\x14\xaeG\xe1zt?'
tRp608
sg13
I200
sg14
g10
(g11
S'\xfc\xa9\xf1\xd2Mb\x80?'
tRp609
sg16
g17
sg18
F0.10000000000000001
sg19
I30
sg20
g34
sg22
F0.10000000000000001
sa(dp610
g8
I50
sg9
g10
(g11
S'{\x14\xaeG\xe1zt?'
tRp611
sg13
I200
sg14
g10
(g11
S'\xfc\xa9\xf1\xd2Mb\x80?'
tRp612
sg16
g17
sg18
F0.10000000000000001
sg19
I30
sg20
g38
sg22
F0.10000000000000001
sa(dp613
g8
I50
sg9
g599
sg13
I200
sg14
g10
(g11
S'<\xdfO\x8d\x97n\x82?'
tRp614
sg16
g17
sg18
F0.10000000000000001
sg19
I30
sg20
g21
sg22
F0.10000000000000001
sa(dp615
g8
I50
sg9
g602
sg13
I200
sg14
g10
(g11
S'<\xdfO\x8d\x97n\x82?'
tRp616
sg16
g17
sg18
F0.10000000000000001
sg19
I30
sg20
g26
sg22
F0.10000000000000001
sa(dp617
g8
I50
sg9
g605
sg13
I200
sg14
g10
(g11
S'<\xdfO\x8d\x97n\x82?'
tRp618
sg16
g17
sg18
F0.10000000000000001
sg19
I30
sg20
g30
sg22
F0.10000000000000001
sa(dp619
g8
I50
sg9
g608
sg13
I200
sg14
g10
(g11
S'<\xdfO\x8d\x97n\x82?'
tRp620
sg16
g17
sg18
F0.10000000000000001
sg19
I30
sg20
g34
sg22
F0.10000000000000001
sa(dp621
g8
I50
sg9
g611
sg13
I200
sg14
g10
(g11
S'<\xdfO\x8d\x97n\x82?'
tRp622
sg16
g17
sg18
F0.10000000000000001
sg19
I30
sg20
g38
sg22
F0.10000000000000001
sa(dp623
g8
I50
sg9
g599
sg13
I200
sg14
g10
(g11
S'{\x14\xaeG\xe1z\x84?'
tRp624
sg16
g17
sg18
F0.10000000000000001
sg19
I30
sg20
g21
sg22
F0.10000000000000001
sa(dp625
g8
I50
sg9
g602
sg13
I200
sg14
g10
(g11
S'{\x14\xaeG\xe1z\x84?'
tRp626
sg16
g17
sg18
F0.10000000000000001
sg19
I30
sg20
g26
sg22
F0.10000000000000001
sa(dp627
g8
I50
sg9
g605
sg13
I200
sg14
g10
(g11
S'{\x14\xaeG\xe1z\x84?'
tRp628
sg16
g17
sg18
F0.10000000000000001
sg19
I30
sg20
g30
sg22
F0.10000000000000001
sa(dp629
g8
I50
sg9
g608
sg13
I200
sg14
g10
(g11
S'{\x14\xaeG\xe1z\x84?'
tRp630
sg16
g17
sg18
F0.10000000000000001
sg19
I30
sg20
g34
sg22
F0.10000000000000001
sa(dp631
g8
I50
sg9
g611
sg13
I200
sg14
g10
(g11
S'{\x14\xaeG\xe1z\x84?'
tRp632
sg16
g17
sg18
F0.10000000000000001
sg19
I30
sg20
g38
sg22
F0.10000000000000001
sa(dp633
g8
I50
sg9
g599
sg13
I200
sg14
g10
(g11
S'\xbaI\x0c\x02+\x87\x86?'
tRp634
sg16
g17
sg18
F0.10000000000000001
sg19
I30
sg20
g21
sg22
F0.10000000000000001
sa(dp635
g8
I50
sg9
g602
sg13
I200
sg14
g10
(g11
S'\xbaI\x0c\x02+\x87\x86?'
tRp636
sg16
g17
sg18
F0.10000000000000001
sg19
I30
sg20
g26
sg22
F0.10000000000000001
sa(dp637
g8
I50
sg9
g605
sg13
I200
sg14
g10
(g11
S'\xbaI\x0c\x02+\x87\x86?'
tRp638
sg16
g17
sg18
F0.10000000000000001
sg19
I30
sg20
g30
sg22
F0.10000000000000001
sa(dp639
g8
I50
sg9
g608
sg13
I200
sg14
g10
(g11
S'\xbaI\x0c\x02+\x87\x86?'
tRp640
sg16
g17
sg18
F0.10000000000000001
sg19
I30
sg20
g34
sg22
F0.10000000000000001
sa(dp641
g8
I50
sg9
g611
sg13
I200
sg14
g10
(g11
S'\xbaI\x0c\x02+\x87\x86?'
tRp642
sg16
g17
sg18
F0.10000000000000001
sg19
I30
sg20
g38
sg22
F0.10000000000000001
sa(dp643
g8
I50
sg9
g599
sg13
I200
sg14
g10
(g11
S'\xfa~j\xbct\x93\x88?'
tRp644
sg16
g17
sg18
F0.10000000000000001
sg19
I30
sg20
g21
sg22
F0.10000000000000001
sa(dp645
g8
I50
sg9
g602
sg13
I200
sg14
g10
(g11
S'\xfa~j\xbct\x93\x88?'
tRp646
sg16
g17
sg18
F0.10000000000000001
sg19
I30
sg20
g26
sg22
F0.10000000000000001
sa(dp647
g8
I50
sg9
g605
sg13
I200
sg14
g10
(g11
S'\xfa~j\xbct\x93\x88?'
tRp648
sg16
g17
sg18
F0.10000000000000001
sg19
I30
sg20
g30
sg22
F0.10000000000000001
sa(dp649
g8
I50
sg9
g608
sg13
I200
sg14
g10
(g11
S'\xfa~j\xbct\x93\x88?'
tRp650
sg16
g17
sg18
F0.10000000000000001
sg19
I30
sg20
g34
sg22
F0.10000000000000001
sa(dp651
g8
I50
sg9
g611
sg13
I200
sg14
g10
(g11
S'\xfa~j\xbct\x93\x88?'
tRp652
sg16
g17
sg18
F0.10000000000000001
sg19
I30
sg20
g38
sg22
F0.10000000000000001
sa(dp653
g8
I50
sg9
g10
(g11
S'{\x14\xaeG\xe1zt?'
tRp654
sg13
I200
sg14
g10
(g11
S'\xfc\xa9\xf1\xd2Mb\x80?'
tRp655
sg16
g82
sg18
F0.10000000000000001
sg19
I30
sg20
g83
sg22
F0.10000000000000001
sa(dp656
g8
I50
sg9
g10
(g11
S'{\x14\xaeG\xe1zt?'
tRp657
sg13
I200
sg14
g10
(g11
S'\xfc\xa9\xf1\xd2Mb\x80?'
tRp658
sg16
g82
sg18
F0.10000000000000001
sg19
I30
sg20
g87
sg22
F0.10000000000000001
sa(dp659
g8
I50
sg9
g10
(g11
S'{\x14\xaeG\xe1zt?'
tRp660
sg13
I200
sg14
g10
(g11
S'\xfc\xa9\xf1\xd2Mb\x80?'
tRp661
sg16
g82
sg18
F0.10000000000000001
sg19
I30
sg20
g91
sg22
F0.10000000000000001
sa(dp662
g8
I50
sg9
g10
(g11
S'{\x14\xaeG\xe1zt?'
tRp663
sg13
I200
sg14
g10
(g11
S'\xfc\xa9\xf1\xd2Mb\x80?'
tRp664
sg16
g82
sg18
F0.10000000000000001
sg19
I30
sg20
g95
sg22
F0.10000000000000001
sa(dp665
g8
I50
sg9
g10
(g11
S'{\x14\xaeG\xe1zt?'
tRp666
sg13
I200
sg14
g10
(g11
S'\xfc\xa9\xf1\xd2Mb\x80?'
tRp667
sg16
g82
sg18
F0.10000000000000001
sg19
I30
sg20
g99
sg22
F0.10000000000000001
sa(dp668
g8
I50
sg9
g654
sg13
I200
sg14
g10
(g11
S'<\xdfO\x8d\x97n\x82?'
tRp669
sg16
g82
sg18
F0.10000000000000001
sg19
I30
sg20
g83
sg22
F0.10000000000000001
sa(dp670
g8
I50
sg9
g657
sg13
I200
sg14
g10
(g11
S'<\xdfO\x8d\x97n\x82?'
tRp671
sg16
g82
sg18
F0.10000000000000001
sg19
I30
sg20
g87
sg22
F0.10000000000000001
sa(dp672
g8
I50
sg9
g660
sg13
I200
sg14
g10
(g11
S'<\xdfO\x8d\x97n\x82?'
tRp673
sg16
g82
sg18
F0.10000000000000001
sg19
I30
sg20
g91
sg22
F0.10000000000000001
sa(dp674
g8
I50
sg9
g663
sg13
I200
sg14
g10
(g11
S'<\xdfO\x8d\x97n\x82?'
tRp675
sg16
g82
sg18
F0.10000000000000001
sg19
I30
sg20
g95
sg22
F0.10000000000000001
sa(dp676
g8
I50
sg9
g666
sg13
I200
sg14
g10
(g11
S'<\xdfO\x8d\x97n\x82?'
tRp677
sg16
g82
sg18
F0.10000000000000001
sg19
I30
sg20
g99
sg22
F0.10000000000000001
sa(dp678
g8
I50
sg9
g654
sg13
I200
sg14
g10
(g11
S'{\x14\xaeG\xe1z\x84?'
tRp679
sg16
g82
sg18
F0.10000000000000001
sg19
I30
sg20
g83
sg22
F0.10000000000000001
sa(dp680
g8
I50
sg9
g657
sg13
I200
sg14
g10
(g11
S'{\x14\xaeG\xe1z\x84?'
tRp681
sg16
g82
sg18
F0.10000000000000001
sg19
I30
sg20
g87
sg22
F0.10000000000000001
sa(dp682
g8
I50
sg9
g660
sg13
I200
sg14
g10
(g11
S'{\x14\xaeG\xe1z\x84?'
tRp683
sg16
g82
sg18
F0.10000000000000001
sg19
I30
sg20
g91
sg22
F0.10000000000000001
sa(dp684
g8
I50
sg9
g663
sg13
I200
sg14
g10
(g11
S'{\x14\xaeG\xe1z\x84?'
tRp685
sg16
g82
sg18
F0.10000000000000001
sg19
I30
sg20
g95
sg22
F0.10000000000000001
sa(dp686
g8
I50
sg9
g666
sg13
I200
sg14
g10
(g11
S'{\x14\xaeG\xe1z\x84?'
tRp687
sg16
g82
sg18
F0.10000000000000001
sg19
I30
sg20
g99
sg22
F0.10000000000000001
sa(dp688
g8
I50
sg9
g654
sg13
I200
sg14
g10
(g11
S'\xbaI\x0c\x02+\x87\x86?'
tRp689
sg16
g82
sg18
F0.10000000000000001
sg19
I30
sg20
g83
sg22
F0.10000000000000001
sa(dp690
g8
I50
sg9
g657
sg13
I200
sg14
g10
(g11
S'\xbaI\x0c\x02+\x87\x86?'
tRp691
sg16
g82
sg18
F0.10000000000000001
sg19
I30
sg20
g87
sg22
F0.10000000000000001
sa(dp692
g8
I50
sg9
g660
sg13
I200
sg14
g10
(g11
S'\xbaI\x0c\x02+\x87\x86?'
tRp693
sg16
g82
sg18
F0.10000000000000001
sg19
I30
sg20
g91
sg22
F0.10000000000000001
sa(dp694
g8
I50
sg9
g663
sg13
I200
sg14
g10
(g11
S'\xbaI\x0c\x02+\x87\x86?'
tRp695
sg16
g82
sg18
F0.10000000000000001
sg19
I30
sg20
g95
sg22
F0.10000000000000001
sa(dp696
g8
I50
sg9
g666
sg13
I200
sg14
g10
(g11
S'\xbaI\x0c\x02+\x87\x86?'
tRp697
sg16
g82
sg18
F0.10000000000000001
sg19
I30
sg20
g99
sg22
F0.10000000000000001
sa(dp698
g8
I50
sg9
g654
sg13
I200
sg14
g10
(g11
S'\xfa~j\xbct\x93\x88?'
tRp699
sg16
g82
sg18
F0.10000000000000001
sg19
I30
sg20
g83
sg22
F0.10000000000000001
sa(dp700
g8
I50
sg9
g657
sg13
I200
sg14
g10
(g11
S'\xfa~j\xbct\x93\x88?'
tRp701
sg16
g82
sg18
F0.10000000000000001
sg19
I30
sg20
g87
sg22
F0.10000000000000001
sa(dp702
g8
I50
sg9
g660
sg13
I200
sg14
g10
(g11
S'\xfa~j\xbct\x93\x88?'
tRp703
sg16
g82
sg18
F0.10000000000000001
sg19
I30
sg20
g91
sg22
F0.10000000000000001
sa(dp704
g8
I50
sg9
g663
sg13
I200
sg14
g10
(g11
S'\xfa~j\xbct\x93\x88?'
tRp705
sg16
g82
sg18
F0.10000000000000001
sg19
I30
sg20
g95
sg22
F0.10000000000000001
sa(dp706
g8
I50
sg9
g666
sg13
I200
sg14
g10
(g11
S'\xfa~j\xbct\x93\x88?'
tRp707
sg16
g82
sg18
F0.10000000000000001
sg19
I30
sg20
g99
sg22
F0.10000000000000001
sa(dp708
g8
I50
sg9
g10
(g11
S'{\x14\xaeG\xe1zt?'
tRp709
sg13
I200
sg14
g10
(g11
S'\xfc\xa9\xf1\xd2Mb\x80?'
tRp710
sg16
g143
sg18
F0.10000000000000001
sg19
I30
sg20
g144
sg22
F0.10000000000000001
sa(dp711
g8
I50
sg9
g10
(g11
S'{\x14\xaeG\xe1zt?'
tRp712
sg13
I200
sg14
g10
(g11
S'\xfc\xa9\xf1\xd2Mb\x80?'
tRp713
sg16
g143
sg18
F0.10000000000000001
sg19
I30
sg20
g148
sg22
F0.10000000000000001
sa(dp714
g8
I50
sg9
g10
(g11
S'{\x14\xaeG\xe1zt?'
tRp715
sg13
I200
sg14
g10
(g11
S'\xfc\xa9\xf1\xd2Mb\x80?'
tRp716
sg16
g143
sg18
F0.10000000000000001
sg19
I30
sg20
g152
sg22
F0.10000000000000001
sa(dp717
g8
I50
sg9
g10
(g11
S'{\x14\xaeG\xe1zt?'
tRp718
sg13
I200
sg14
g10
(g11
S'\xfc\xa9\xf1\xd2Mb\x80?'
tRp719
sg16
g143
sg18
F0.10000000000000001
sg19
I30
sg20
g156
sg22
F0.10000000000000001
sa(dp720
g8
I50
sg9
g10
(g11
S'{\x14\xaeG\xe1zt?'
tRp721
sg13
I200
sg14
g10
(g11
S'\xfc\xa9\xf1\xd2Mb\x80?'
tRp722
sg16
g143
sg18
F0.10000000000000001
sg19
I30
sg20
g160
sg22
F0.10000000000000001
sa(dp723
g8
I50
sg9
g709
sg13
I200
sg14
g10
(g11
S'<\xdfO\x8d\x97n\x82?'
tRp724
sg16
g143
sg18
F0.10000000000000001
sg19
I30
sg20
g144
sg22
F0.10000000000000001
sa(dp725
g8
I50
sg9
g712
sg13
I200
sg14
g10
(g11
S'<\xdfO\x8d\x97n\x82?'
tRp726
sg16
g143
sg18
F0.10000000000000001
sg19
I30
sg20
g148
sg22
F0.10000000000000001
sa(dp727
g8
I50
sg9
g715
sg13
I200
sg14
g10
(g11
S'<\xdfO\x8d\x97n\x82?'
tRp728
sg16
g143
sg18
F0.10000000000000001
sg19
I30
sg20
g152
sg22
F0.10000000000000001
sa(dp729
g8
I50
sg9
g718
sg13
I200
sg14
g10
(g11
S'<\xdfO\x8d\x97n\x82?'
tRp730
sg16
g143
sg18
F0.10000000000000001
sg19
I30
sg20
g156
sg22
F0.10000000000000001
sa(dp731
g8
I50
sg9
g721
sg13
I200
sg14
g10
(g11
S'<\xdfO\x8d\x97n\x82?'
tRp732
sg16
g143
sg18
F0.10000000000000001
sg19
I30
sg20
g160
sg22
F0.10000000000000001
sa(dp733
g8
I50
sg9
g709
sg13
I200
sg14
g10
(g11
S'{\x14\xaeG\xe1z\x84?'
tRp734
sg16
g143
sg18
F0.10000000000000001
sg19
I30
sg20
g144
sg22
F0.10000000000000001
sa(dp735
g8
I50
sg9
g712
sg13
I200
sg14
g10
(g11
S'{\x14\xaeG\xe1z\x84?'
tRp736
sg16
g143
sg18
F0.10000000000000001
sg19
I30
sg20
g148
sg22
F0.10000000000000001
sa(dp737
g8
I50
sg9
g715
sg13
I200
sg14
g10
(g11
S'{\x14\xaeG\xe1z\x84?'
tRp738
sg16
g143
sg18
F0.10000000000000001
sg19
I30
sg20
g152
sg22
F0.10000000000000001
sa(dp739
g8
I50
sg9
g718
sg13
I200
sg14
g10
(g11
S'{\x14\xaeG\xe1z\x84?'
tRp740
sg16
g143
sg18
F0.10000000000000001
sg19
I30
sg20
g156
sg22
F0.10000000000000001
sa(dp741
g8
I50
sg9
g721
sg13
I200
sg14
g10
(g11
S'{\x14\xaeG\xe1z\x84?'
tRp742
sg16
g143
sg18
F0.10000000000000001
sg19
I30
sg20
g160
sg22
F0.10000000000000001
sa(dp743
g8
I50
sg9
g709
sg13
I200
sg14
g10
(g11
S'\xbaI\x0c\x02+\x87\x86?'
tRp744
sg16
g143
sg18
F0.10000000000000001
sg19
I30
sg20
g144
sg22
F0.10000000000000001
sa(dp745
g8
I50
sg9
g712
sg13
I200
sg14
g10
(g11
S'\xbaI\x0c\x02+\x87\x86?'
tRp746
sg16
g143
sg18
F0.10000000000000001
sg19
I30
sg20
g148
sg22
F0.10000000000000001
sa(dp747
g8
I50
sg9
g715
sg13
I200
sg14
g10
(g11
S'\xbaI\x0c\x02+\x87\x86?'
tRp748
sg16
g143
sg18
F0.10000000000000001
sg19
I30
sg20
g152
sg22
F0.10000000000000001
sa(dp749
g8
I50
sg9
g718
sg13
I200
sg14
g10
(g11
S'\xbaI\x0c\x02+\x87\x86?'
tRp750
sg16
g143
sg18
F0.10000000000000001
sg19
I30
sg20
g156
sg22
F0.10000000000000001
sa(dp751
g8
I50
sg9
g721
sg13
I200
sg14
g10
(g11
S'\xbaI\x0c\x02+\x87\x86?'
tRp752
sg16
g143
sg18
F0.10000000000000001
sg19
I30
sg20
g160
sg22
F0.10000000000000001
sa(dp753
g8
I50
sg9
g709
sg13
I200
sg14
g10
(g11
S'\xfa~j\xbct\x93\x88?'
tRp754
sg16
g143
sg18
F0.10000000000000001
sg19
I30
sg20
g144
sg22
F0.10000000000000001
sa(dp755
g8
I50
sg9
g712
sg13
I200
sg14
g10
(g11
S'\xfa~j\xbct\x93\x88?'
tRp756
sg16
g143
sg18
F0.10000000000000001
sg19
I30
sg20
g148
sg22
F0.10000000000000001
sa(dp757
g8
I50
sg9
g715
sg13
I200
sg14
g10
(g11
S'\xfa~j\xbct\x93\x88?'
tRp758
sg16
g143
sg18
F0.10000000000000001
sg19
I30
sg20
g152
sg22
F0.10000000000000001
sa(dp759
g8
I50
sg9
g718
sg13
I200
sg14
g10
(g11
S'\xfa~j\xbct\x93\x88?'
tRp760
sg16
g143
sg18
F0.10000000000000001
sg19
I30
sg20
g156
sg22
F0.10000000000000001
sa(dp761
g8
I50
sg9
g721
sg13
I200
sg14
g10
(g11
S'\xfa~j\xbct\x93\x88?'
tRp762
sg16
g143
sg18
F0.10000000000000001
sg19
I30
sg20
g160
sg22
F0.10000000000000001
sa(dp763
g8
I50
sg9
g10
(g11
S'{\x14\xaeG\xe1zt?'
tRp764
sg13
I200
sg14
g10
(g11
S'\xfc\xa9\xf1\xd2Mb\x80?'
tRp765
sg16
g204
sg18
F0.10000000000000001
sg19
I30
sg20
g205
sg22
F0.10000000000000001
sa(dp766
g8
I50
sg9
g10
(g11
S'{\x14\xaeG\xe1zt?'
tRp767
sg13
I200
sg14
g10
(g11
S'\xfc\xa9\xf1\xd2Mb\x80?'
tRp768
sg16
g204
sg18
F0.10000000000000001
sg19
I30
sg20
g209
sg22
F0.10000000000000001
sa(dp769
g8
I50
sg9
g10
(g11
S'{\x14\xaeG\xe1zt?'
tRp770
sg13
I200
sg14
g10
(g11
S'\xfc\xa9\xf1\xd2Mb\x80?'
tRp771
sg16
g204
sg18
F0.10000000000000001
sg19
I30
sg20
g213
sg22
F0.10000000000000001
sa(dp772
g8
I50
sg9
g10
(g11
S'{\x14\xaeG\xe1zt?'
tRp773
sg13
I200
sg14
g10
(g11
S'\xfc\xa9\xf1\xd2Mb\x80?'
tRp774
sg16
g204
sg18
F0.10000000000000001
sg19
I30
sg20
g217
sg22
F0.10000000000000001
sa(dp775
g8
I50
sg9
g10
(g11
S'{\x14\xaeG\xe1zt?'
tRp776
sg13
I200
sg14
g10
(g11
S'\xfc\xa9\xf1\xd2Mb\x80?'
tRp777
sg16
g204
sg18
F0.10000000000000001
sg19
I30
sg20
g221
sg22
F0.10000000000000001
sa(dp778
g8
I50
sg9
g764
sg13
I200
sg14
g10
(g11
S'<\xdfO\x8d\x97n\x82?'
tRp779
sg16
g204
sg18
F0.10000000000000001
sg19
I30
sg20
g205
sg22
F0.10000000000000001
sa(dp780
g8
I50
sg9
g767
sg13
I200
sg14
g10
(g11
S'<\xdfO\x8d\x97n\x82?'
tRp781
sg16
g204
sg18
F0.10000000000000001
sg19
I30
sg20
g209
sg22
F0.10000000000000001
sa(dp782
g8
I50
sg9
g770
sg13
I200
sg14
g10
(g11
S'<\xdfO\x8d\x97n\x82?'
tRp783
sg16
g204
sg18
F0.10000000000000001
sg19
I30
sg20
g213
sg22
F0.10000000000000001
sa(dp784
g8
I50
sg9
g773
sg13
I200
sg14
g10
(g11
S'<\xdfO\x8d\x97n\x82?'
tRp785
sg16
g204
sg18
F0.10000000000000001
sg19
I30
sg20
g217
sg22
F0.10000000000000001
sa(dp786
g8
I50
sg9
g776
sg13
I200
sg14
g10
(g11
S'<\xdfO\x8d\x97n\x82?'
tRp787
sg16
g204
sg18
F0.10000000000000001
sg19
I30
sg20
g221
sg22
F0.10000000000000001
sa(dp788
g8
I50
sg9
g764
sg13
I200
sg14
g10
(g11
S'{\x14\xaeG\xe1z\x84?'
tRp789
sg16
g204
sg18
F0.10000000000000001
sg19
I30
sg20
g205
sg22
F0.10000000000000001
sa(dp790
g8
I50
sg9
g767
sg13
I200
sg14
g10
(g11
S'{\x14\xaeG\xe1z\x84?'
tRp791
sg16
g204
sg18
F0.10000000000000001
sg19
I30
sg20
g209
sg22
F0.10000000000000001
sa(dp792
g8
I50
sg9
g770
sg13
I200
sg14
g10
(g11
S'{\x14\xaeG\xe1z\x84?'
tRp793
sg16
g204
sg18
F0.10000000000000001
sg19
I30
sg20
g213
sg22
F0.10000000000000001
sa(dp794
g8
I50
sg9
g773
sg13
I200
sg14
g10
(g11
S'{\x14\xaeG\xe1z\x84?'
tRp795
sg16
g204
sg18
F0.10000000000000001
sg19
I30
sg20
g217
sg22
F0.10000000000000001
sa(dp796
g8
I50
sg9
g776
sg13
I200
sg14
g10
(g11
S'{\x14\xaeG\xe1z\x84?'
tRp797
sg16
g204
sg18
F0.10000000000000001
sg19
I30
sg20
g221
sg22
F0.10000000000000001
sa(dp798
g8
I50
sg9
g764
sg13
I200
sg14
g10
(g11
S'\xbaI\x0c\x02+\x87\x86?'
tRp799
sg16
g204
sg18
F0.10000000000000001
sg19
I30
sg20
g205
sg22
F0.10000000000000001
sa(dp800
g8
I50
sg9
g767
sg13
I200
sg14
g10
(g11
S'\xbaI\x0c\x02+\x87\x86?'
tRp801
sg16
g204
sg18
F0.10000000000000001
sg19
I30
sg20
g209
sg22
F0.10000000000000001
sa(dp802
g8
I50
sg9
g770
sg13
I200
sg14
g10
(g11
S'\xbaI\x0c\x02+\x87\x86?'
tRp803
sg16
g204
sg18
F0.10000000000000001
sg19
I30
sg20
g213
sg22
F0.10000000000000001
sa(dp804
g8
I50
sg9
g773
sg13
I200
sg14
g10
(g11
S'\xbaI\x0c\x02+\x87\x86?'
tRp805
sg16
g204
sg18
F0.10000000000000001
sg19
I30
sg20
g217
sg22
F0.10000000000000001
sa(dp806
g8
I50
sg9
g776
sg13
I200
sg14
g10
(g11
S'\xbaI\x0c\x02+\x87\x86?'
tRp807
sg16
g204
sg18
F0.10000000000000001
sg19
I30
sg20
g221
sg22
F0.10000000000000001
sa(dp808
g8
I50
sg9
g764
sg13
I200
sg14
g10
(g11
S'\xfa~j\xbct\x93\x88?'
tRp809
sg16
g204
sg18
F0.10000000000000001
sg19
I30
sg20
g205
sg22
F0.10000000000000001
sa(dp810
g8
I50
sg9
g767
sg13
I200
sg14
g10
(g11
S'\xfa~j\xbct\x93\x88?'
tRp811
sg16
g204
sg18
F0.10000000000000001
sg19
I30
sg20
g209
sg22
F0.10000000000000001
sa(dp812
g8
I50
sg9
g770
sg13
I200
sg14
g10
(g11
S'\xfa~j\xbct\x93\x88?'
tRp813
sg16
g204
sg18
F0.10000000000000001
sg19
I30
sg20
g213
sg22
F0.10000000000000001
sa(dp814
g8
I50
sg9
g773
sg13
I200
sg14
g10
(g11
S'\xfa~j\xbct\x93\x88?'
tRp815
sg16
g204
sg18
F0.10000000000000001
sg19
I30
sg20
g217
sg22
F0.10000000000000001
sa(dp816
g8
I50
sg9
g776
sg13
I200
sg14
g10
(g11
S'\xfa~j\xbct\x93\x88?'
tRp817
sg16
g204
sg18
F0.10000000000000001
sg19
I30
sg20
g221
sg22
F0.10000000000000001
sa(dp818
g8
I50
sg9
g10
(g11
S'{\x14\xaeG\xe1zt?'
tRp819
sg13
I200
sg14
g10
(g11
S'\xfc\xa9\xf1\xd2Mb\x80?'
tRp820
sg16
g265
sg18
F0.10000000000000001
sg19
I30
sg20
g266
sg22
F0.10000000000000001
sa(dp821
g8
I50
sg9
g10
(g11
S'{\x14\xaeG\xe1zt?'
tRp822
sg13
I200
sg14
g10
(g11
S'\xfc\xa9\xf1\xd2Mb\x80?'
tRp823
sg16
g265
sg18
F0.10000000000000001
sg19
I30
sg20
g270
sg22
F0.10000000000000001
sa(dp824
g8
I50
sg9
g10
(g11
S'{\x14\xaeG\xe1zt?'
tRp825
sg13
I200
sg14
g10
(g11
S'\xfc\xa9\xf1\xd2Mb\x80?'
tRp826
sg16
g265
sg18
F0.10000000000000001
sg19
I30
sg20
g274
sg22
F0.10000000000000001
sa(dp827
g8
I50
sg9
g10
(g11
S'{\x14\xaeG\xe1zt?'
tRp828
sg13
I200
sg14
g10
(g11
S'\xfc\xa9\xf1\xd2Mb\x80?'
tRp829
sg16
g265
sg18
F0.10000000000000001
sg19
I30
sg20
g278
sg22
F0.10000000000000001
sa(dp830
g8
I50
sg9
g10
(g11
S'{\x14\xaeG\xe1zt?'
tRp831
sg13
I200
sg14
g10
(g11
S'\xfc\xa9\xf1\xd2Mb\x80?'
tRp832
sg16
g265
sg18
F0.10000000000000001
sg19
I30
sg20
g282
sg22
F0.10000000000000001
sa(dp833
g8
I50
sg9
g819
sg13
I200
sg14
g10
(g11
S'<\xdfO\x8d\x97n\x82?'
tRp834
sg16
g265
sg18
F0.10000000000000001
sg19
I30
sg20
g266
sg22
F0.10000000000000001
sa(dp835
g8
I50
sg9
g822
sg13
I200
sg14
g10
(g11
S'<\xdfO\x8d\x97n\x82?'
tRp836
sg16
g265
sg18
F0.10000000000000001
sg19
I30
sg20
g270
sg22
F0.10000000000000001
sa(dp837
g8
I50
sg9
g825
sg13
I200
sg14
g10
(g11
S'<\xdfO\x8d\x97n\x82?'
tRp838
sg16
g265
sg18
F0.10000000000000001
sg19
I30
sg20
g274
sg22
F0.10000000000000001
sa(dp839
g8
I50
sg9
g828
sg13
I200
sg14
g10
(g11
S'<\xdfO\x8d\x97n\x82?'
tRp840
sg16
g265
sg18
F0.10000000000000001
sg19
I30
sg20
g278
sg22
F0.10000000000000001
sa(dp841
g8
I50
sg9
g831
sg13
I200
sg14
g10
(g11
S'<\xdfO\x8d\x97n\x82?'
tRp842
sg16
g265
sg18
F0.10000000000000001
sg19
I30
sg20
g282
sg22
F0.10000000000000001
sa(dp843
g8
I50
sg9
g819
sg13
I200
sg14
g10
(g11
S'{\x14\xaeG\xe1z\x84?'
tRp844
sg16
g265
sg18
F0.10000000000000001
sg19
I30
sg20
g266
sg22
F0.10000000000000001
sa(dp845
g8
I50
sg9
g822
sg13
I200
sg14
g10
(g11
S'{\x14\xaeG\xe1z\x84?'
tRp846
sg16
g265
sg18
F0.10000000000000001
sg19
I30
sg20
g270
sg22
F0.10000000000000001
sa(dp847
g8
I50
sg9
g825
sg13
I200
sg14
g10
(g11
S'{\x14\xaeG\xe1z\x84?'
tRp848
sg16
g265
sg18
F0.10000000000000001
sg19
I30
sg20
g274
sg22
F0.10000000000000001
sa(dp849
g8
I50
sg9
g828
sg13
I200
sg14
g10
(g11
S'{\x14\xaeG\xe1z\x84?'
tRp850
sg16
g265
sg18
F0.10000000000000001
sg19
I30
sg20
g278
sg22
F0.10000000000000001
sa(dp851
g8
I50
sg9
g831
sg13
I200
sg14
g10
(g11
S'{\x14\xaeG\xe1z\x84?'
tRp852
sg16
g265
sg18
F0.10000000000000001
sg19
I30
sg20
g282
sg22
F0.10000000000000001
sa(dp853
g8
I50
sg9
g819
sg13
I200
sg14
g10
(g11
S'\xbaI\x0c\x02+\x87\x86?'
tRp854
sg16
g265
sg18
F0.10000000000000001
sg19
I30
sg20
g266
sg22
F0.10000000000000001
sa(dp855
g8
I50
sg9
g822
sg13
I200
sg14
g10
(g11
S'\xbaI\x0c\x02+\x87\x86?'
tRp856
sg16
g265
sg18
F0.10000000000000001
sg19
I30
sg20
g270
sg22
F0.10000000000000001
sa(dp857
g8
I50
sg9
g825
sg13
I200
sg14
g10
(g11
S'\xbaI\x0c\x02+\x87\x86?'
tRp858
sg16
g265
sg18
F0.10000000000000001
sg19
I30
sg20
g274
sg22
F0.10000000000000001
sa(dp859
g8
I50
sg9
g828
sg13
I200
sg14
g10
(g11
S'\xbaI\x0c\x02+\x87\x86?'
tRp860
sg16
g265
sg18
F0.10000000000000001
sg19
I30
sg20
g278
sg22
F0.10000000000000001
sa(dp861
g8
I50
sg9
g831
sg13
I200
sg14
g10
(g11
S'\xbaI\x0c\x02+\x87\x86?'
tRp862
sg16
g265
sg18
F0.10000000000000001
sg19
I30
sg20
g282
sg22
F0.10000000000000001
sa(dp863
g8
I50
sg9
g819
sg13
I200
sg14
g10
(g11
S'\xfa~j\xbct\x93\x88?'
tRp864
sg16
g265
sg18
F0.10000000000000001
sg19
I30
sg20
g266
sg22
F0.10000000000000001
sa(dp865
g8
I50
sg9
g822
sg13
I200
sg14
g10
(g11
S'\xfa~j\xbct\x93\x88?'
tRp866
sg16
g265
sg18
F0.10000000000000001
sg19
I30
sg20
g270
sg22
F0.10000000000000001
sa(dp867
g8
I50
sg9
g825
sg13
I200
sg14
g10
(g11
S'\xfa~j\xbct\x93\x88?'
tRp868
sg16
g265
sg18
F0.10000000000000001
sg19
I30
sg20
g274
sg22
F0.10000000000000001
sa(dp869
g8
I50
sg9
g828
sg13
I200
sg14
g10
(g11
S'\xfa~j\xbct\x93\x88?'
tRp870
sg16
g265
sg18
F0.10000000000000001
sg19
I30
sg20
g278
sg22
F0.10000000000000001
sa(dp871
g8
I50
sg9
g831
sg13
I200
sg14
g10
(g11
S'\xfa~j\xbct\x93\x88?'
tRp872
sg16
g265
sg18
F0.10000000000000001
sg19
I30
sg20
g282
sg22
F0.10000000000000001
sa(dp873
g8
I50
sg9
g10
(g11
S'\xfa~j\xbct\x93x?'
tRp874
sg13
I200
sg14
g10
(g11
S'\xfc\xa9\xf1\xd2Mb\x80?'
tRp875
sg16
g17
sg18
F0.10000000000000001
sg19
I30
sg20
g21
sg22
F0.10000000000000001
sa(dp876
g8
I50
sg9
g10
(g11
S'\xfa~j\xbct\x93x?'
tRp877
sg13
I200
sg14
g10
(g11
S'\xfc\xa9\xf1\xd2Mb\x80?'
tRp878
sg16
g17
sg18
F0.10000000000000001
sg19
I30
sg20
g26
sg22
F0.10000000000000001
sa(dp879
g8
I50
sg9
g10
(g11
S'\xfa~j\xbct\x93x?'
tRp880
sg13
I200
sg14
g10
(g11
S'\xfc\xa9\xf1\xd2Mb\x80?'
tRp881
sg16
g17
sg18
F0.10000000000000001
sg19
I30
sg20
g30
sg22
F0.10000000000000001
sa(dp882
g8
I50
sg9
g10
(g11
S'\xfa~j\xbct\x93x?'
tRp883
sg13
I200
sg14
g10
(g11
S'\xfc\xa9\xf1\xd2Mb\x80?'
tRp884
sg16
g17
sg18
F0.10000000000000001
sg19
I30
sg20
g34
sg22
F0.10000000000000001
sa(dp885
g8
I50
sg9
g10
(g11
S'\xfa~j\xbct\x93x?'
tRp886
sg13
I200
sg14
g10
(g11
S'\xfc\xa9\xf1\xd2Mb\x80?'
tRp887
sg16
g17
sg18
F0.10000000000000001
sg19
I30
sg20
g38
sg22
F0.10000000000000001
sa(dp888
g8
I50
sg9
g874
sg13
I200
sg14
g10
(g11
S'<\xdfO\x8d\x97n\x82?'
tRp889
sg16
g17
sg18
F0.10000000000000001
sg19
I30
sg20
g21
sg22
F0.10000000000000001
sa(dp890
g8
I50
sg9
g877
sg13
I200
sg14
g10
(g11
S'<\xdfO\x8d\x97n\x82?'
tRp891
sg16
g17
sg18
F0.10000000000000001
sg19
I30
sg20
g26
sg22
F0.10000000000000001
sa(dp892
g8
I50
sg9
g880
sg13
I200
sg14
g10
(g11
S'<\xdfO\x8d\x97n\x82?'
tRp893
sg16
g17
sg18
F0.10000000000000001
sg19
I30
sg20
g30
sg22
F0.10000000000000001
sa(dp894
g8
I50
sg9
g883
sg13
I200
sg14
g10
(g11
S'<\xdfO\x8d\x97n\x82?'
tRp895
sg16
g17
sg18
F0.10000000000000001
sg19
I30
sg20
g34
sg22
F0.10000000000000001
sa(dp896
g8
I50
sg9
g886
sg13
I200
sg14
g10
(g11
S'<\xdfO\x8d\x97n\x82?'
tRp897
sg16
g17
sg18
F0.10000000000000001
sg19
I30
sg20
g38
sg22
F0.10000000000000001
sa(dp898
g8
I50
sg9
g874
sg13
I200
sg14
g10
(g11
S'{\x14\xaeG\xe1z\x84?'
tRp899
sg16
g17
sg18
F0.10000000000000001
sg19
I30
sg20
g21
sg22
F0.10000000000000001
sa(dp900
g8
I50
sg9
g877
sg13
I200
sg14
g10
(g11
S'{\x14\xaeG\xe1z\x84?'
tRp901
sg16
g17
sg18
F0.10000000000000001
sg19
I30
sg20
g26
sg22
F0.10000000000000001
sa(dp902
g8
I50
sg9
g880
sg13
I200
sg14
g10
(g11
S'{\x14\xaeG\xe1z\x84?'
tRp903
sg16
g17
sg18
F0.10000000000000001
sg19
I30
sg20
g30
sg22
F0.10000000000000001
sa(dp904
g8
I50
sg9
g883
sg13
I200
sg14
g10
(g11
S'{\x14\xaeG\xe1z\x84?'
tRp905
sg16
g17
sg18
F0.10000000000000001
sg19
I30
sg20
g34
sg22
F0.10000000000000001
sa(dp906
g8
I50
sg9
g886
sg13
I200
sg14
g10
(g11
S'{\x14\xaeG\xe1z\x84?'
tRp907
sg16
g17
sg18
F0.10000000000000001
sg19
I30
sg20
g38
sg22
F0.10000000000000001
sa(dp908
g8
I50
sg9
g874
sg13
I200
sg14
g10
(g11
S'\xbaI\x0c\x02+\x87\x86?'
tRp909
sg16
g17
sg18
F0.10000000000000001
sg19
I30
sg20
g21
sg22
F0.10000000000000001
sa(dp910
g8
I50
sg9
g877
sg13
I200
sg14
g10
(g11
S'\xbaI\x0c\x02+\x87\x86?'
tRp911
sg16
g17
sg18
F0.10000000000000001
sg19
I30
sg20
g26
sg22
F0.10000000000000001
sa(dp912
g8
I50
sg9
g880
sg13
I200
sg14
g10
(g11
S'\xbaI\x0c\x02+\x87\x86?'
tRp913
sg16
g17
sg18
F0.10000000000000001
sg19
I30
sg20
g30
sg22
F0.10000000000000001
sa(dp914
g8
I50
sg9
g883
sg13
I200
sg14
g10
(g11
S'\xbaI\x0c\x02+\x87\x86?'
tRp915
sg16
g17
sg18
F0.10000000000000001
sg19
I30
sg20
g34
sg22
F0.10000000000000001
sa(dp916
g8
I50
sg9
g886
sg13
I200
sg14
g10
(g11
S'\xbaI\x0c\x02+\x87\x86?'
tRp917
sg16
g17
sg18
F0.10000000000000001
sg19
I30
sg20
g38
sg22
F0.10000000000000001
sa(dp918
g8
I50
sg9
g874
sg13
I200
sg14
g10
(g11
S'\xfa~j\xbct\x93\x88?'
tRp919
sg16
g17
sg18
F0.10000000000000001
sg19
I30
sg20
g21
sg22
F0.10000000000000001
sa(dp920
g8
I50
sg9
g877
sg13
I200
sg14
g10
(g11
S'\xfa~j\xbct\x93\x88?'
tRp921
sg16
g17
sg18
F0.10000000000000001
sg19
I30
sg20
g26
sg22
F0.10000000000000001
sa(dp922
g8
I50
sg9
g880
sg13
I200
sg14
g10
(g11
S'\xfa~j\xbct\x93\x88?'
tRp923
sg16
g17
sg18
F0.10000000000000001
sg19
I30
sg20
g30
sg22
F0.10000000000000001
sa(dp924
g8
I50
sg9
g883
sg13
I200
sg14
g10
(g11
S'\xfa~j\xbct\x93\x88?'
tRp925
sg16
g17
sg18
F0.10000000000000001
sg19
I30
sg20
g34
sg22
F0.10000000000000001
sa(dp926
g8
I50
sg9
g886
sg13
I200
sg14
g10
(g11
S'\xfa~j\xbct\x93\x88?'
tRp927
sg16
g17
sg18
F0.10000000000000001
sg19
I30
sg20
g38
sg22
F0.10000000000000001
sa(dp928
g8
I50
sg9
g10
(g11
S'\xfa~j\xbct\x93x?'
tRp929
sg13
I200
sg14
g10
(g11
S'\xfc\xa9\xf1\xd2Mb\x80?'
tRp930
sg16
g82
sg18
F0.10000000000000001
sg19
I30
sg20
g83
sg22
F0.10000000000000001
sa(dp931
g8
I50
sg9
g10
(g11
S'\xfa~j\xbct\x93x?'
tRp932
sg13
I200
sg14
g10
(g11
S'\xfc\xa9\xf1\xd2Mb\x80?'
tRp933
sg16
g82
sg18
F0.10000000000000001
sg19
I30
sg20
g87
sg22
F0.10000000000000001
sa(dp934
g8
I50
sg9
g10
(g11
S'\xfa~j\xbct\x93x?'
tRp935
sg13
I200
sg14
g10
(g11
S'\xfc\xa9\xf1\xd2Mb\x80?'
tRp936
sg16
g82
sg18
F0.10000000000000001
sg19
I30
sg20
g91
sg22
F0.10000000000000001
sa(dp937
g8
I50
sg9
g10
(g11
S'\xfa~j\xbct\x93x?'
tRp938
sg13
I200
sg14
g10
(g11
S'\xfc\xa9\xf1\xd2Mb\x80?'
tRp939
sg16
g82
sg18
F0.10000000000000001
sg19
I30
sg20
g95
sg22
F0.10000000000000001
sa(dp940
g8
I50
sg9
g10
(g11
S'\xfa~j\xbct\x93x?'
tRp941
sg13
I200
sg14
g10
(g11
S'\xfc\xa9\xf1\xd2Mb\x80?'
tRp942
sg16
g82
sg18
F0.10000000000000001
sg19
I30
sg20
g99
sg22
F0.10000000000000001
sa(dp943
g8
I50
sg9
g929
sg13
I200
sg14
g10
(g11
S'<\xdfO\x8d\x97n\x82?'
tRp944
sg16
g82
sg18
F0.10000000000000001
sg19
I30
sg20
g83
sg22
F0.10000000000000001
sa(dp945
g8
I50
sg9
g932
sg13
I200
sg14
g10
(g11
S'<\xdfO\x8d\x97n\x82?'
tRp946
sg16
g82
sg18
F0.10000000000000001
sg19
I30
sg20
g87
sg22
F0.10000000000000001
sa(dp947
g8
I50
sg9
g935
sg13
I200
sg14
g10
(g11
S'<\xdfO\x8d\x97n\x82?'
tRp948
sg16
g82
sg18
F0.10000000000000001
sg19
I30
sg20
g91
sg22
F0.10000000000000001
sa(dp949
g8
I50
sg9
g938
sg13
I200
sg14
g10
(g11
S'<\xdfO\x8d\x97n\x82?'
tRp950
sg16
g82
sg18
F0.10000000000000001
sg19
I30
sg20
g95
sg22
F0.10000000000000001
sa(dp951
g8
I50
sg9
g941
sg13
I200
sg14
g10
(g11
S'<\xdfO\x8d\x97n\x82?'
tRp952
sg16
g82
sg18
F0.10000000000000001
sg19
I30
sg20
g99
sg22
F0.10000000000000001
sa(dp953
g8
I50
sg9
g929
sg13
I200
sg14
g10
(g11
S'{\x14\xaeG\xe1z\x84?'
tRp954
sg16
g82
sg18
F0.10000000000000001
sg19
I30
sg20
g83
sg22
F0.10000000000000001
sa(dp955
g8
I50
sg9
g932
sg13
I200
sg14
g10
(g11
S'{\x14\xaeG\xe1z\x84?'
tRp956
sg16
g82
sg18
F0.10000000000000001
sg19
I30
sg20
g87
sg22
F0.10000000000000001
sa(dp957
g8
I50
sg9
g935
sg13
I200
sg14
g10
(g11
S'{\x14\xaeG\xe1z\x84?'
tRp958
sg16
g82
sg18
F0.10000000000000001
sg19
I30
sg20
g91
sg22
F0.10000000000000001
sa(dp959
g8
I50
sg9
g938
sg13
I200
sg14
g10
(g11
S'{\x14\xaeG\xe1z\x84?'
tRp960
sg16
g82
sg18
F0.10000000000000001
sg19
I30
sg20
g95
sg22
F0.10000000000000001
sa(dp961
g8
I50
sg9
g941
sg13
I200
sg14
g10
(g11
S'{\x14\xaeG\xe1z\x84?'
tRp962
sg16
g82
sg18
F0.10000000000000001
sg19
I30
sg20
g99
sg22
F0.10000000000000001
sa(dp963
g8
I50
sg9
g929
sg13
I200
sg14
g10
(g11
S'\xbaI\x0c\x02+\x87\x86?'
tRp964
sg16
g82
sg18
F0.10000000000000001
sg19
I30
sg20
g83
sg22
F0.10000000000000001
sa(dp965
g8
I50
sg9
g932
sg13
I200
sg14
g10
(g11
S'\xbaI\x0c\x02+\x87\x86?'
tRp966
sg16
g82
sg18
F0.10000000000000001
sg19
I30
sg20
g87
sg22
F0.10000000000000001
sa(dp967
g8
I50
sg9
g935
sg13
I200
sg14
g10
(g11
S'\xbaI\x0c\x02+\x87\x86?'
tRp968
sg16
g82
sg18
F0.10000000000000001
sg19
I30
sg20
g91
sg22
F0.10000000000000001
sa(dp969
g8
I50
sg9
g938
sg13
I200
sg14
g10
(g11
S'\xbaI\x0c\x02+\x87\x86?'
tRp970
sg16
g82
sg18
F0.10000000000000001
sg19
I30
sg20
g95
sg22
F0.10000000000000001
sa(dp971
g8
I50
sg9
g941
sg13
I200
sg14
g10
(g11
S'\xbaI\x0c\x02+\x87\x86?'
tRp972
sg16
g82
sg18
F0.10000000000000001
sg19
I30
sg20
g99
sg22
F0.10000000000000001
sa(dp973
g8
I50
sg9
g929
sg13
I200
sg14
g10
(g11
S'\xfa~j\xbct\x93\x88?'
tRp974
sg16
g82
sg18
F0.10000000000000001
sg19
I30
sg20
g83
sg22
F0.10000000000000001
sa(dp975
g8
I50
sg9
g932
sg13
I200
sg14
g10
(g11
S'\xfa~j\xbct\x93\x88?'
tRp976
sg16
g82
sg18
F0.10000000000000001
sg19
I30
sg20
g87
sg22
F0.10000000000000001
sa(dp977
g8
I50
sg9
g935
sg13
I200
sg14
g10
(g11
S'\xfa~j\xbct\x93\x88?'
tRp978
sg16
g82
sg18
F0.10000000000000001
sg19
I30
sg20
g91
sg22
F0.10000000000000001
sa(dp979
g8
I50
sg9
g938
sg13
I200
sg14
g10
(g11
S'\xfa~j\xbct\x93\x88?'
tRp980
sg16
g82
sg18
F0.10000000000000001
sg19
I30
sg20
g95
sg22
F0.10000000000000001
sa(dp981
g8
I50
sg9
g941
sg13
I200
sg14
g10
(g11
S'\xfa~j\xbct\x93\x88?'
tRp982
sg16
g82
sg18
F0.10000000000000001
sg19
I30
sg20
g99
sg22
F0.10000000000000001
sa(dp983
g8
I50
sg9
g10
(g11
S'\xfa~j\xbct\x93x?'
tRp984
sg13
I200
sg14
g10
(g11
S'\xfc\xa9\xf1\xd2Mb\x80?'
tRp985
sg16
g143
sg18
F0.10000000000000001
sg19
I30
sg20
g144
sg22
F0.10000000000000001
sa(dp986
g8
I50
sg9
g10
(g11
S'\xfa~j\xbct\x93x?'
tRp987
sg13
I200
sg14
g10
(g11
S'\xfc\xa9\xf1\xd2Mb\x80?'
tRp988
sg16
g143
sg18
F0.10000000000000001
sg19
I30
sg20
g148
sg22
F0.10000000000000001
sa(dp989
g8
I50
sg9
g10
(g11
S'\xfa~j\xbct\x93x?'
tRp990
sg13
I200
sg14
g10
(g11
S'\xfc\xa9\xf1\xd2Mb\x80?'
tRp991
sg16
g143
sg18
F0.10000000000000001
sg19
I30
sg20
g152
sg22
F0.10000000000000001
sa(dp992
g8
I50
sg9
g10
(g11
S'\xfa~j\xbct\x93x?'
tRp993
sg13
I200
sg14
g10
(g11
S'\xfc\xa9\xf1\xd2Mb\x80?'
tRp994
sg16
g143
sg18
F0.10000000000000001
sg19
I30
sg20
g156
sg22
F0.10000000000000001
sa(dp995
g8
I50
sg9
g10
(g11
S'\xfa~j\xbct\x93x?'
tRp996
sg13
I200
sg14
g10
(g11
S'\xfc\xa9\xf1\xd2Mb\x80?'
tRp997
sg16
g143
sg18
F0.10000000000000001
sg19
I30
sg20
g160
sg22
F0.10000000000000001
sa(dp998
g8
I50
sg9
g984
sg13
I200
sg14
g10
(g11
S'<\xdfO\x8d\x97n\x82?'
tRp999
sg16
g143
sg18
F0.10000000000000001
sg19
I30
sg20
g144
sg22
F0.10000000000000001
sa(dp1000
g8
I50
sg9
g987
sg13
I200
sg14
g10
(g11
S'<\xdfO\x8d\x97n\x82?'
tRp1001
sg16
g143
sg18
F0.10000000000000001
sg19
I30
sg20
g148
sg22
F0.10000000000000001
sa(dp1002
g8
I50
sg9
g990
sg13
I200
sg14
g10
(g11
S'<\xdfO\x8d\x97n\x82?'
tRp1003
sg16
g143
sg18
F0.10000000000000001
sg19
I30
sg20
g152
sg22
F0.10000000000000001
sa(dp1004
g8
I50
sg9
g993
sg13
I200
sg14
g10
(g11
S'<\xdfO\x8d\x97n\x82?'
tRp1005
sg16
g143
sg18
F0.10000000000000001
sg19
I30
sg20
g156
sg22
F0.10000000000000001
sa(dp1006
g8
I50
sg9
g996
sg13
I200
sg14
g10
(g11
S'<\xdfO\x8d\x97n\x82?'
tRp1007
sg16
g143
sg18
F0.10000000000000001
sg19
I30
sg20
g160
sg22
F0.10000000000000001
sa(dp1008
g8
I50
sg9
g984
sg13
I200
sg14
g10
(g11
S'{\x14\xaeG\xe1z\x84?'
tRp1009
sg16
g143
sg18
F0.10000000000000001
sg19
I30
sg20
g144
sg22
F0.10000000000000001
sa(dp1010
g8
I50
sg9
g987
sg13
I200
sg14
g10
(g11
S'{\x14\xaeG\xe1z\x84?'
tRp1011
sg16
g143
sg18
F0.10000000000000001
sg19
I30
sg20
g148
sg22
F0.10000000000000001
sa(dp1012
g8
I50
sg9
g990
sg13
I200
sg14
g10
(g11
S'{\x14\xaeG\xe1z\x84?'
tRp1013
sg16
g143
sg18
F0.10000000000000001
sg19
I30
sg20
g152
sg22
F0.10000000000000001
sa(dp1014
g8
I50
sg9
g993
sg13
I200
sg14
g10
(g11
S'{\x14\xaeG\xe1z\x84?'
tRp1015
sg16
g143
sg18
F0.10000000000000001
sg19
I30
sg20
g156
sg22
F0.10000000000000001
sa(dp1016
g8
I50
sg9
g996
sg13
I200
sg14
g10
(g11
S'{\x14\xaeG\xe1z\x84?'
tRp1017
sg16
g143
sg18
F0.10000000000000001
sg19
I30
sg20
g160
sg22
F0.10000000000000001
sa(dp1018
g8
I50
sg9
g984
sg13
I200
sg14
g10
(g11
S'\xbaI\x0c\x02+\x87\x86?'
tRp1019
sg16
g143
sg18
F0.10000000000000001
sg19
I30
sg20
g144
sg22
F0.10000000000000001
sa(dp1020
g8
I50
sg9
g987
sg13
I200
sg14
g10
(g11
S'\xbaI\x0c\x02+\x87\x86?'
tRp1021
sg16
g143
sg18
F0.10000000000000001
sg19
I30
sg20
g148
sg22
F0.10000000000000001
sa(dp1022
g8
I50
sg9
g990
sg13
I200
sg14
g10
(g11
S'\xbaI\x0c\x02+\x87\x86?'
tRp1023
sg16
g143
sg18
F0.10000000000000001
sg19
I30
sg20
g152
sg22
F0.10000000000000001
sa(dp1024
g8
I50
sg9
g993
sg13
I200
sg14
g10
(g11
S'\xbaI\x0c\x02+\x87\x86?'
tRp1025
sg16
g143
sg18
F0.10000000000000001
sg19
I30
sg20
g156
sg22
F0.10000000000000001
sa(dp1026
g8
I50
sg9
g996
sg13
I200
sg14
g10
(g11
S'\xbaI\x0c\x02+\x87\x86?'
tRp1027
sg16
g143
sg18
F0.10000000000000001
sg19
I30
sg20
g160
sg22
F0.10000000000000001
sa(dp1028
g8
I50
sg9
g984
sg13
I200
sg14
g10
(g11
S'\xfa~j\xbct\x93\x88?'
tRp1029
sg16
g143
sg18
F0.10000000000000001
sg19
I30
sg20
g144
sg22
F0.10000000000000001
sa(dp1030
g8
I50
sg9
g987
sg13
I200
sg14
g10
(g11
S'\xfa~j\xbct\x93\x88?'
tRp1031
sg16
g143
sg18
F0.10000000000000001
sg19
I30
sg20
g148
sg22
F0.10000000000000001
sa(dp1032
g8
I50
sg9
g990
sg13
I200
sg14
g10
(g11
S'\xfa~j\xbct\x93\x88?'
tRp1033
sg16
g143
sg18
F0.10000000000000001
sg19
I30
sg20
g152
sg22
F0.10000000000000001
sa(dp1034
g8
I50
sg9
g993
sg13
I200
sg14
g10
(g11
S'\xfa~j\xbct\x93\x88?'
tRp1035
sg16
g143
sg18
F0.10000000000000001
sg19
I30
sg20
g156
sg22
F0.10000000000000001
sa(dp1036
g8
I50
sg9
g996
sg13
I200
sg14
g10
(g11
S'\xfa~j\xbct\x93\x88?'
tRp1037
sg16
g143
sg18
F0.10000000000000001
sg19
I30
sg20
g160
sg22
F0.10000000000000001
sa(dp1038
g8
I50
sg9
g10
(g11
S'\xfa~j\xbct\x93x?'
tRp1039
sg13
I200
sg14
g10
(g11
S'\xfc\xa9\xf1\xd2Mb\x80?'
tRp1040
sg16
g204
sg18
F0.10000000000000001
sg19
I30
sg20
g205
sg22
F0.10000000000000001
sa(dp1041
g8
I50
sg9
g10
(g11
S'\xfa~j\xbct\x93x?'
tRp1042
sg13
I200
sg14
g10
(g11
S'\xfc\xa9\xf1\xd2Mb\x80?'
tRp1043
sg16
g204
sg18
F0.10000000000000001
sg19
I30
sg20
g209
sg22
F0.10000000000000001
sa(dp1044
g8
I50
sg9
g10
(g11
S'\xfa~j\xbct\x93x?'
tRp1045
sg13
I200
sg14
g10
(g11
S'\xfc\xa9\xf1\xd2Mb\x80?'
tRp1046
sg16
g204
sg18
F0.10000000000000001
sg19
I30
sg20
g213
sg22
F0.10000000000000001
sa(dp1047
g8
I50
sg9
g10
(g11
S'\xfa~j\xbct\x93x?'
tRp1048
sg13
I200
sg14
g10
(g11
S'\xfc\xa9\xf1\xd2Mb\x80?'
tRp1049
sg16
g204
sg18
F0.10000000000000001
sg19
I30
sg20
g217
sg22
F0.10000000000000001
sa(dp1050
g8
I50
sg9
g10
(g11
S'\xfa~j\xbct\x93x?'
tRp1051
sg13
I200
sg14
g10
(g11
S'\xfc\xa9\xf1\xd2Mb\x80?'
tRp1052
sg16
g204
sg18
F0.10000000000000001
sg19
I30
sg20
g221
sg22
F0.10000000000000001
sa(dp1053
g8
I50
sg9
g1039
sg13
I200
sg14
g10
(g11
S'<\xdfO\x8d\x97n\x82?'
tRp1054
sg16
g204
sg18
F0.10000000000000001
sg19
I30
sg20
g205
sg22
F0.10000000000000001
sa(dp1055
g8
I50
sg9
g1042
sg13
I200
sg14
g10
(g11
S'<\xdfO\x8d\x97n\x82?'
tRp1056
sg16
g204
sg18
F0.10000000000000001
sg19
I30
sg20
g209
sg22
F0.10000000000000001
sa(dp1057
g8
I50
sg9
g1045
sg13
I200
sg14
g10
(g11
S'<\xdfO\x8d\x97n\x82?'
tRp1058
sg16
g204
sg18
F0.10000000000000001
sg19
I30
sg20
g213
sg22
F0.10000000000000001
sa(dp1059
g8
I50
sg9
g1048
sg13
I200
sg14
g10
(g11
S'<\xdfO\x8d\x97n\x82?'
tRp1060
sg16
g204
sg18
F0.10000000000000001
sg19
I30
sg20
g217
sg22
F0.10000000000000001
sa(dp1061
g8
I50
sg9
g1051
sg13
I200
sg14
g10
(g11
S'<\xdfO\x8d\x97n\x82?'
tRp1062
sg16
g204
sg18
F0.10000000000000001
sg19
I30
sg20
g221
sg22
F0.10000000000000001
sa(dp1063
g8
I50
sg9
g1039
sg13
I200
sg14
g10
(g11
S'{\x14\xaeG\xe1z\x84?'
tRp1064
sg16
g204
sg18
F0.10000000000000001
sg19
I30
sg20
g205
sg22
F0.10000000000000001
sa(dp1065
g8
I50
sg9
g1042
sg13
I200
sg14
g10
(g11
S'{\x14\xaeG\xe1z\x84?'
tRp1066
sg16
g204
sg18
F0.10000000000000001
sg19
I30
sg20
g209
sg22
F0.10000000000000001
sa(dp1067
g8
I50
sg9
g1045
sg13
I200
sg14
g10
(g11
S'{\x14\xaeG\xe1z\x84?'
tRp1068
sg16
g204
sg18
F0.10000000000000001
sg19
I30
sg20
g213
sg22
F0.10000000000000001
sa(dp1069
g8
I50
sg9
g1048
sg13
I200
sg14
g10
(g11
S'{\x14\xaeG\xe1z\x84?'
tRp1070
sg16
g204
sg18
F0.10000000000000001
sg19
I30
sg20
g217
sg22
F0.10000000000000001
sa(dp1071
g8
I50
sg9
g1051
sg13
I200
sg14
g10
(g11
S'{\x14\xaeG\xe1z\x84?'
tRp1072
sg16
g204
sg18
F0.10000000000000001
sg19
I30
sg20
g221
sg22
F0.10000000000000001
sa(dp1073
g8
I50
sg9
g1039
sg13
I200
sg14
g10
(g11
S'\xbaI\x0c\x02+\x87\x86?'
tRp1074
sg16
g204
sg18
F0.10000000000000001
sg19
I30
sg20
g205
sg22
F0.10000000000000001
sa(dp1075
g8
I50
sg9
g1042
sg13
I200
sg14
g10
(g11
S'\xbaI\x0c\x02+\x87\x86?'
tRp1076
sg16
g204
sg18
F0.10000000000000001
sg19
I30
sg20
g209
sg22
F0.10000000000000001
sa(dp1077
g8
I50
sg9
g1045
sg13
I200
sg14
g10
(g11
S'\xbaI\x0c\x02+\x87\x86?'
tRp1078
sg16
g204
sg18
F0.10000000000000001
sg19
I30
sg20
g213
sg22
F0.10000000000000001
sa(dp1079
g8
I50
sg9
g1048
sg13
I200
sg14
g10
(g11
S'\xbaI\x0c\x02+\x87\x86?'
tRp1080
sg16
g204
sg18
F0.10000000000000001
sg19
I30
sg20
g217
sg22
F0.10000000000000001
sa(dp1081
g8
I50
sg9
g1051
sg13
I200
sg14
g10
(g11
S'\xbaI\x0c\x02+\x87\x86?'
tRp1082
sg16
g204
sg18
F0.10000000000000001
sg19
I30
sg20
g221
sg22
F0.10000000000000001
sa(dp1083
g8
I50
sg9
g1039
sg13
I200
sg14
g10
(g11
S'\xfa~j\xbct\x93\x88?'
tRp1084
sg16
g204
sg18
F0.10000000000000001
sg19
I30
sg20
g205
sg22
F0.10000000000000001
sa(dp1085
g8
I50
sg9
g1042
sg13
I200
sg14
g10
(g11
S'\xfa~j\xbct\x93\x88?'
tRp1086
sg16
g204
sg18
F0.10000000000000001
sg19
I30
sg20
g209
sg22
F0.10000000000000001
sa(dp1087
g8
I50
sg9
g1045
sg13
I200
sg14
g10
(g11
S'\xfa~j\xbct\x93\x88?'
tRp1088
sg16
g204
sg18
F0.10000000000000001
sg19
I30
sg20
g213
sg22
F0.10000000000000001
sa(dp1089
g8
I50
sg9
g1048
sg13
I200
sg14
g10
(g11
S'\xfa~j\xbct\x93\x88?'
tRp1090
sg16
g204
sg18
F0.10000000000000001
sg19
I30
sg20
g217
sg22
F0.10000000000000001
sa(dp1091
g8
I50
sg9
g1051
sg13
I200
sg14
g10
(g11
S'\xfa~j\xbct\x93\x88?'
tRp1092
sg16
g204
sg18
F0.10000000000000001
sg19
I30
sg20
g221
sg22
F0.10000000000000001
sa(dp1093
g8
I50
sg9
g10
(g11
S'\xfa~j\xbct\x93x?'
tRp1094
sg13
I200
sg14
g10
(g11
S'\xfc\xa9\xf1\xd2Mb\x80?'
tRp1095
sg16
g265
sg18
F0.10000000000000001
sg19
I30
sg20
g266
sg22
F0.10000000000000001
sa(dp1096
g8
I50
sg9
g10
(g11
S'\xfa~j\xbct\x93x?'
tRp1097
sg13
I200
sg14
g10
(g11
S'\xfc\xa9\xf1\xd2Mb\x80?'
tRp1098
sg16
g265
sg18
F0.10000000000000001
sg19
I30
sg20
g270
sg22
F0.10000000000000001
sa(dp1099
g8
I50
sg9
g10
(g11
S'\xfa~j\xbct\x93x?'
tRp1100
sg13
I200
sg14
g10
(g11
S'\xfc\xa9\xf1\xd2Mb\x80?'
tRp1101
sg16
g265
sg18
F0.10000000000000001
sg19
I30
sg20
g274
sg22
F0.10000000000000001
sa(dp1102
g8
I50
sg9
g10
(g11
S'\xfa~j\xbct\x93x?'
tRp1103
sg13
I200
sg14
g10
(g11
S'\xfc\xa9\xf1\xd2Mb\x80?'
tRp1104
sg16
g265
sg18
F0.10000000000000001
sg19
I30
sg20
g278
sg22
F0.10000000000000001
sa(dp1105
g8
I50
sg9
g10
(g11
S'\xfa~j\xbct\x93x?'
tRp1106
sg13
I200
sg14
g10
(g11
S'\xfc\xa9\xf1\xd2Mb\x80?'
tRp1107
sg16
g265
sg18
F0.10000000000000001
sg19
I30
sg20
g282
sg22
F0.10000000000000001
sa(dp1108
g8
I50
sg9
g1094
sg13
I200
sg14
g10
(g11
S'<\xdfO\x8d\x97n\x82?'
tRp1109
sg16
g265
sg18
F0.10000000000000001
sg19
I30
sg20
g266
sg22
F0.10000000000000001
sa(dp1110
g8
I50
sg9
g1097
sg13
I200
sg14
g10
(g11
S'<\xdfO\x8d\x97n\x82?'
tRp1111
sg16
g265
sg18
F0.10000000000000001
sg19
I30
sg20
g270
sg22
F0.10000000000000001
sa(dp1112
g8
I50
sg9
g1100
sg13
I200
sg14
g10
(g11
S'<\xdfO\x8d\x97n\x82?'
tRp1113
sg16
g265
sg18
F0.10000000000000001
sg19
I30
sg20
g274
sg22
F0.10000000000000001
sa(dp1114
g8
I50
sg9
g1103
sg13
I200
sg14
g10
(g11
S'<\xdfO\x8d\x97n\x82?'
tRp1115
sg16
g265
sg18
F0.10000000000000001
sg19
I30
sg20
g278
sg22
F0.10000000000000001
sa(dp1116
g8
I50
sg9
g1106
sg13
I200
sg14
g10
(g11
S'<\xdfO\x8d\x97n\x82?'
tRp1117
sg16
g265
sg18
F0.10000000000000001
sg19
I30
sg20
g282
sg22
F0.10000000000000001
sa(dp1118
g8
I50
sg9
g1094
sg13
I200
sg14
g10
(g11
S'{\x14\xaeG\xe1z\x84?'
tRp1119
sg16
g265
sg18
F0.10000000000000001
sg19
I30
sg20
g266
sg22
F0.10000000000000001
sa(dp1120
g8
I50
sg9
g1097
sg13
I200
sg14
g10
(g11
S'{\x14\xaeG\xe1z\x84?'
tRp1121
sg16
g265
sg18
F0.10000000000000001
sg19
I30
sg20
g270
sg22
F0.10000000000000001
sa(dp1122
g8
I50
sg9
g1100
sg13
I200
sg14
g10
(g11
S'{\x14\xaeG\xe1z\x84?'
tRp1123
sg16
g265
sg18
F0.10000000000000001
sg19
I30
sg20
g274
sg22
F0.10000000000000001
sa(dp1124
g8
I50
sg9
g1103
sg13
I200
sg14
g10
(g11
S'{\x14\xaeG\xe1z\x84?'
tRp1125
sg16
g265
sg18
F0.10000000000000001
sg19
I30
sg20
g278
sg22
F0.10000000000000001
sa(dp1126
g8
I50
sg9
g1106
sg13
I200
sg14
g10
(g11
S'{\x14\xaeG\xe1z\x84?'
tRp1127
sg16
g265
sg18
F0.10000000000000001
sg19
I30
sg20
g282
sg22
F0.10000000000000001
sa(dp1128
g8
I50
sg9
g1094
sg13
I200
sg14
g10
(g11
S'\xbaI\x0c\x02+\x87\x86?'
tRp1129
sg16
g265
sg18
F0.10000000000000001
sg19
I30
sg20
g266
sg22
F0.10000000000000001
sa(dp1130
g8
I50
sg9
g1097
sg13
I200
sg14
g10
(g11
S'\xbaI\x0c\x02+\x87\x86?'
tRp1131
sg16
g265
sg18
F0.10000000000000001
sg19
I30
sg20
g270
sg22
F0.10000000000000001
sa(dp1132
g8
I50
sg9
g1100
sg13
I200
sg14
g10
(g11
S'\xbaI\x0c\x02+\x87\x86?'
tRp1133
sg16
g265
sg18
F0.10000000000000001
sg19
I30
sg20
g274
sg22
F0.10000000000000001
sa(dp1134
g8
I50
sg9
g1103
sg13
I200
sg14
g10
(g11
S'\xbaI\x0c\x02+\x87\x86?'
tRp1135
sg16
g265
sg18
F0.10000000000000001
sg19
I30
sg20
g278
sg22
F0.10000000000000001
sa(dp1136
g8
I50
sg9
g1106
sg13
I200
sg14
g10
(g11
S'\xbaI\x0c\x02+\x87\x86?'
tRp1137
sg16
g265
sg18
F0.10000000000000001
sg19
I30
sg20
g282
sg22
F0.10000000000000001
sa(dp1138
g8
I50
sg9
g1094
sg13
I200
sg14
g10
(g11
S'\xfa~j\xbct\x93\x88?'
tRp1139
sg16
g265
sg18
F0.10000000000000001
sg19
I30
sg20
g266
sg22
F0.10000000000000001
sa(dp1140
g8
I50
sg9
g1097
sg13
I200
sg14
g10
(g11
S'\xfa~j\xbct\x93\x88?'
tRp1141
sg16
g265
sg18
F0.10000000000000001
sg19
I30
sg20
g270
sg22
F0.10000000000000001
sa(dp1142
g8
I50
sg9
g1100
sg13
I200
sg14
g10
(g11
S'\xfa~j\xbct\x93\x88?'
tRp1143
sg16
g265
sg18
F0.10000000000000001
sg19
I30
sg20
g274
sg22
F0.10000000000000001
sa(dp1144
g8
I50
sg9
g1103
sg13
I200
sg14
g10
(g11
S'\xfa~j\xbct\x93\x88?'
tRp1145
sg16
g265
sg18
F0.10000000000000001
sg19
I30
sg20
g278
sg22
F0.10000000000000001
sa(dp1146
g8
I50
sg9
g1106
sg13
I200
sg14
g10
(g11
S'\xfa~j\xbct\x93\x88?'
tRp1147
sg16
g265
sg18
F0.10000000000000001
sg19
I30
sg20
g282
sg22
F0.10000000000000001
sa(dp1148
g8
I50
sg9
g10
(g11
S'y\xe9&1\x08\xac|?'
tRp1149
sg13
I200
sg14
g10
(g11
S'\xfc\xa9\xf1\xd2Mb\x80?'
tRp1150
sg16
g17
sg18
F0.10000000000000001
sg19
I30
sg20
g21
sg22
F0.10000000000000001
sa(dp1151
g8
I50
sg9
g10
(g11
S'y\xe9&1\x08\xac|?'
tRp1152
sg13
I200
sg14
g10
(g11
S'\xfc\xa9\xf1\xd2Mb\x80?'
tRp1153
sg16
g17
sg18
F0.10000000000000001
sg19
I30
sg20
g26
sg22
F0.10000000000000001
sa(dp1154
g8
I50
sg9
g10
(g11
S'y\xe9&1\x08\xac|?'
tRp1155
sg13
I200
sg14
g10
(g11
S'\xfc\xa9\xf1\xd2Mb\x80?'
tRp1156
sg16
g17
sg18
F0.10000000000000001
sg19
I30
sg20
g30
sg22
F0.10000000000000001
sa(dp1157
g8
I50
sg9
g10
(g11
S'y\xe9&1\x08\xac|?'
tRp1158
sg13
I200
sg14
g10
(g11
S'\xfc\xa9\xf1\xd2Mb\x80?'
tRp1159
sg16
g17
sg18
F0.10000000000000001
sg19
I30
sg20
g34
sg22
F0.10000000000000001
sa(dp1160
g8
I50
sg9
g10
(g11
S'y\xe9&1\x08\xac|?'
tRp1161
sg13
I200
sg14
g10
(g11
S'\xfc\xa9\xf1\xd2Mb\x80?'
tRp1162
sg16
g17
sg18
F0.10000000000000001
sg19
I30
sg20
g38
sg22
F0.10000000000000001
sa(dp1163
g8
I50
sg9
g1149
sg13
I200
sg14
g10
(g11
S'<\xdfO\x8d\x97n\x82?'
tRp1164
sg16
g17
sg18
F0.10000000000000001
sg19
I30
sg20
g21
sg22
F0.10000000000000001
sa(dp1165
g8
I50
sg9
g1152
sg13
I200
sg14
g10
(g11
S'<\xdfO\x8d\x97n\x82?'
tRp1166
sg16
g17
sg18
F0.10000000000000001
sg19
I30
sg20
g26
sg22
F0.10000000000000001
sa(dp1167
g8
I50
sg9
g1155
sg13
I200
sg14
g10
(g11
S'<\xdfO\x8d\x97n\x82?'
tRp1168
sg16
g17
sg18
F0.10000000000000001
sg19
I30
sg20
g30
sg22
F0.10000000000000001
sa(dp1169
g8
I50
sg9
g1158
sg13
I200
sg14
g10
(g11
S'<\xdfO\x8d\x97n\x82?'
tRp1170
sg16
g17
sg18
F0.10000000000000001
sg19
I30
sg20
g34
sg22
F0.10000000000000001
sa(dp1171
g8
I50
sg9
g1161
sg13
I200
sg14
g10
(g11
S'<\xdfO\x8d\x97n\x82?'
tRp1172
sg16
g17
sg18
F0.10000000000000001
sg19
I30
sg20
g38
sg22
F0.10000000000000001
sa(dp1173
g8
I50
sg9
g1149
sg13
I200
sg14
g10
(g11
S'{\x14\xaeG\xe1z\x84?'
tRp1174
sg16
g17
sg18
F0.10000000000000001
sg19
I30
sg20
g21
sg22
F0.10000000000000001
sa(dp1175
g8
I50
sg9
g1152
sg13
I200
sg14
g10
(g11
S'{\x14\xaeG\xe1z\x84?'
tRp1176
sg16
g17
sg18
F0.10000000000000001
sg19
I30
sg20
g26
sg22
F0.10000000000000001
sa(dp1177
g8
I50
sg9
g1155
sg13
I200
sg14
g10
(g11
S'{\x14\xaeG\xe1z\x84?'
tRp1178
sg16
g17
sg18
F0.10000000000000001
sg19
I30
sg20
g30
sg22
F0.10000000000000001
sa(dp1179
g8
I50
sg9
g1158
sg13
I200
sg14
g10
(g11
S'{\x14\xaeG\xe1z\x84?'
tRp1180
sg16
g17
sg18
F0.10000000000000001
sg19
I30
sg20
g34
sg22
F0.10000000000000001
sa(dp1181
g8
I50
sg9
g1161
sg13
I200
sg14
g10
(g11
S'{\x14\xaeG\xe1z\x84?'
tRp1182
sg16
g17
sg18
F0.10000000000000001
sg19
I30
sg20
g38
sg22
F0.10000000000000001
sa(dp1183
g8
I50
sg9
g1149
sg13
I200
sg14
g10
(g11
S'\xbaI\x0c\x02+\x87\x86?'
tRp1184
sg16
g17
sg18
F0.10000000000000001
sg19
I30
sg20
g21
sg22
F0.10000000000000001
sa(dp1185
g8
I50
sg9
g1152
sg13
I200
sg14
g10
(g11
S'\xbaI\x0c\x02+\x87\x86?'
tRp1186
sg16
g17
sg18
F0.10000000000000001
sg19
I30
sg20
g26
sg22
F0.10000000000000001
sa(dp1187
g8
I50
sg9
g1155
sg13
I200
sg14
g10
(g11
S'\xbaI\x0c\x02+\x87\x86?'
tRp1188
sg16
g17
sg18
F0.10000000000000001
sg19
I30
sg20
g30
sg22
F0.10000000000000001
sa(dp1189
g8
I50
sg9
g1158
sg13
I200
sg14
g10
(g11
S'\xbaI\x0c\x02+\x87\x86?'
tRp1190
sg16
g17
sg18
F0.10000000000000001
sg19
I30
sg20
g34
sg22
F0.10000000000000001
sa(dp1191
g8
I50
sg9
g1161
sg13
I200
sg14
g10
(g11
S'\xbaI\x0c\x02+\x87\x86?'
tRp1192
sg16
g17
sg18
F0.10000000000000001
sg19
I30
sg20
g38
sg22
F0.10000000000000001
sa(dp1193
g8
I50
sg9
g1149
sg13
I200
sg14
g10
(g11
S'\xfa~j\xbct\x93\x88?'
tRp1194
sg16
g17
sg18
F0.10000000000000001
sg19
I30
sg20
g21
sg22
F0.10000000000000001
sa(dp1195
g8
I50
sg9
g1152
sg13
I200
sg14
g10
(g11
S'\xfa~j\xbct\x93\x88?'
tRp1196
sg16
g17
sg18
F0.10000000000000001
sg19
I30
sg20
g26
sg22
F0.10000000000000001
sa(dp1197
g8
I50
sg9
g1155
sg13
I200
sg14
g10
(g11
S'\xfa~j\xbct\x93\x88?'
tRp1198
sg16
g17
sg18
F0.10000000000000001
sg19
I30
sg20
g30
sg22
F0.10000000000000001
sa(dp1199
g8
I50
sg9
g1158
sg13
I200
sg14
g10
(g11
S'\xfa~j\xbct\x93\x88?'
tRp1200
sg16
g17
sg18
F0.10000000000000001
sg19
I30
sg20
g34
sg22
F0.10000000000000001
sa(dp1201
g8
I50
sg9
g1161
sg13
I200
sg14
g10
(g11
S'\xfa~j\xbct\x93\x88?'
tRp1202
sg16
g17
sg18
F0.10000000000000001
sg19
I30
sg20
g38
sg22
F0.10000000000000001
sa(dp1203
g8
I50
sg9
g10
(g11
S'y\xe9&1\x08\xac|?'
tRp1204
sg13
I200
sg14
g10
(g11
S'\xfc\xa9\xf1\xd2Mb\x80?'
tRp1205
sg16
g82
sg18
F0.10000000000000001
sg19
I30
sg20
g83
sg22
F0.10000000000000001
sa(dp1206
g8
I50
sg9
g10
(g11
S'y\xe9&1\x08\xac|?'
tRp1207
sg13
I200
sg14
g10
(g11
S'\xfc\xa9\xf1\xd2Mb\x80?'
tRp1208
sg16
g82
sg18
F0.10000000000000001
sg19
I30
sg20
g87
sg22
F0.10000000000000001
sa(dp1209
g8
I50
sg9
g10
(g11
S'y\xe9&1\x08\xac|?'
tRp1210
sg13
I200
sg14
g10
(g11
S'\xfc\xa9\xf1\xd2Mb\x80?'
tRp1211
sg16
g82
sg18
F0.10000000000000001
sg19
I30
sg20
g91
sg22
F0.10000000000000001
sa(dp1212
g8
I50
sg9
g10
(g11
S'y\xe9&1\x08\xac|?'
tRp1213
sg13
I200
sg14
g10
(g11
S'\xfc\xa9\xf1\xd2Mb\x80?'
tRp1214
sg16
g82
sg18
F0.10000000000000001
sg19
I30
sg20
g95
sg22
F0.10000000000000001
sa(dp1215
g8
I50
sg9
g10
(g11
S'y\xe9&1\x08\xac|?'
tRp1216
sg13
I200
sg14
g10
(g11
S'\xfc\xa9\xf1\xd2Mb\x80?'
tRp1217
sg16
g82
sg18
F0.10000000000000001
sg19
I30
sg20
g99
sg22
F0.10000000000000001
sa(dp1218
g8
I50
sg9
g1204
sg13
I200
sg14
g10
(g11
S'<\xdfO\x8d\x97n\x82?'
tRp1219
sg16
g82
sg18
F0.10000000000000001
sg19
I30
sg20
g83
sg22
F0.10000000000000001
sa(dp1220
g8
I50
sg9
g1207
sg13
I200
sg14
g10
(g11
S'<\xdfO\x8d\x97n\x82?'
tRp1221
sg16
g82
sg18
F0.10000000000000001
sg19
I30
sg20
g87
sg22
F0.10000000000000001
sa(dp1222
g8
I50
sg9
g1210
sg13
I200
sg14
g10
(g11
S'<\xdfO\x8d\x97n\x82?'
tRp1223
sg16
g82
sg18
F0.10000000000000001
sg19
I30
sg20
g91
sg22
F0.10000000000000001
sa(dp1224
g8
I50
sg9
g1213
sg13
I200
sg14
g10
(g11
S'<\xdfO\x8d\x97n\x82?'
tRp1225
sg16
g82
sg18
F0.10000000000000001
sg19
I30
sg20
g95
sg22
F0.10000000000000001
sa(dp1226
g8
I50
sg9
g1216
sg13
I200
sg14
g10
(g11
S'<\xdfO\x8d\x97n\x82?'
tRp1227
sg16
g82
sg18
F0.10000000000000001
sg19
I30
sg20
g99
sg22
F0.10000000000000001
sa(dp1228
g8
I50
sg9
g1204
sg13
I200
sg14
g10
(g11
S'{\x14\xaeG\xe1z\x84?'
tRp1229
sg16
g82
sg18
F0.10000000000000001
sg19
I30
sg20
g83
sg22
F0.10000000000000001
sa(dp1230
g8
I50
sg9
g1207
sg13
I200
sg14
g10
(g11
S'{\x14\xaeG\xe1z\x84?'
tRp1231
sg16
g82
sg18
F0.10000000000000001
sg19
I30
sg20
g87
sg22
F0.10000000000000001
sa(dp1232
g8
I50
sg9
g1210
sg13
I200
sg14
g10
(g11
S'{\x14\xaeG\xe1z\x84?'
tRp1233
sg16
g82
sg18
F0.10000000000000001
sg19
I30
sg20
g91
sg22
F0.10000000000000001
sa(dp1234
g8
I50
sg9
g1213
sg13
I200
sg14
g10
(g11
S'{\x14\xaeG\xe1z\x84?'
tRp1235
sg16
g82
sg18
F0.10000000000000001
sg19
I30
sg20
g95
sg22
F0.10000000000000001
sa(dp1236
g8
I50
sg9
g1216
sg13
I200
sg14
g10
(g11
S'{\x14\xaeG\xe1z\x84?'
tRp1237
sg16
g82
sg18
F0.10000000000000001
sg19
I30
sg20
g99
sg22
F0.10000000000000001
sa(dp1238
g8
I50
sg9
g1204
sg13
I200
sg14
g10
(g11
S'\xbaI\x0c\x02+\x87\x86?'
tRp1239
sg16
g82
sg18
F0.10000000000000001
sg19
I30
sg20
g83
sg22
F0.10000000000000001
sa(dp1240
g8
I50
sg9
g1207
sg13
I200
sg14
g10
(g11
S'\xbaI\x0c\x02+\x87\x86?'
tRp1241
sg16
g82
sg18
F0.10000000000000001
sg19
I30
sg20
g87
sg22
F0.10000000000000001
sa(dp1242
g8
I50
sg9
g1210
sg13
I200
sg14
g10
(g11
S'\xbaI\x0c\x02+\x87\x86?'
tRp1243
sg16
g82
sg18
F0.10000000000000001
sg19
I30
sg20
g91
sg22
F0.10000000000000001
sa(dp1244
g8
I50
sg9
g1213
sg13
I200
sg14
g10
(g11
S'\xbaI\x0c\x02+\x87\x86?'
tRp1245
sg16
g82
sg18
F0.10000000000000001
sg19
I30
sg20
g95
sg22
F0.10000000000000001
sa(dp1246
g8
I50
sg9
g1216
sg13
I200
sg14
g10
(g11
S'\xbaI\x0c\x02+\x87\x86?'
tRp1247
sg16
g82
sg18
F0.10000000000000001
sg19
I30
sg20
g99
sg22
F0.10000000000000001
sa(dp1248
g8
I50
sg9
g1204
sg13
I200
sg14
g10
(g11
S'\xfa~j\xbct\x93\x88?'
tRp1249
sg16
g82
sg18
F0.10000000000000001
sg19
I30
sg20
g83
sg22
F0.10000000000000001
sa(dp1250
g8
I50
sg9
g1207
sg13
I200
sg14
g10
(g11
S'\xfa~j\xbct\x93\x88?'
tRp1251
sg16
g82
sg18
F0.10000000000000001
sg19
I30
sg20
g87
sg22
F0.10000000000000001
sa(dp1252
g8
I50
sg9
g1210
sg13
I200
sg14
g10
(g11
S'\xfa~j\xbct\x93\x88?'
tRp1253
sg16
g82
sg18
F0.10000000000000001
sg19
I30
sg20
g91
sg22
F0.10000000000000001
sa(dp1254
g8
I50
sg9
g1213
sg13
I200
sg14
g10
(g11
S'\xfa~j\xbct\x93\x88?'
tRp1255
sg16
g82
sg18
F0.10000000000000001
sg19
I30
sg20
g95
sg22
F0.10000000000000001
sa(dp1256
g8
I50
sg9
g1216
sg13
I200
sg14
g10
(g11
S'\xfa~j\xbct\x93\x88?'
tRp1257
sg16
g82
sg18
F0.10000000000000001
sg19
I30
sg20
g99
sg22
F0.10000000000000001
sa(dp1258
g8
I50
sg9
g10
(g11
S'y\xe9&1\x08\xac|?'
tRp1259
sg13
I200
sg14
g10
(g11
S'\xfc\xa9\xf1\xd2Mb\x80?'
tRp1260
sg16
g143
sg18
F0.10000000000000001
sg19
I30
sg20
g144
sg22
F0.10000000000000001
sa(dp1261
g8
I50
sg9
g10
(g11
S'y\xe9&1\x08\xac|?'
tRp1262
sg13
I200
sg14
g10
(g11
S'\xfc\xa9\xf1\xd2Mb\x80?'
tRp1263
sg16
g143
sg18
F0.10000000000000001
sg19
I30
sg20
g148
sg22
F0.10000000000000001
sa(dp1264
g8
I50
sg9
g10
(g11
S'y\xe9&1\x08\xac|?'
tRp1265
sg13
I200
sg14
g10
(g11
S'\xfc\xa9\xf1\xd2Mb\x80?'
tRp1266
sg16
g143
sg18
F0.10000000000000001
sg19
I30
sg20
g152
sg22
F0.10000000000000001
sa(dp1267
g8
I50
sg9
g10
(g11
S'y\xe9&1\x08\xac|?'
tRp1268
sg13
I200
sg14
g10
(g11
S'\xfc\xa9\xf1\xd2Mb\x80?'
tRp1269
sg16
g143
sg18
F0.10000000000000001
sg19
I30
sg20
g156
sg22
F0.10000000000000001
sa(dp1270
g8
I50
sg9
g10
(g11
S'y\xe9&1\x08\xac|?'
tRp1271
sg13
I200
sg14
g10
(g11
S'\xfc\xa9\xf1\xd2Mb\x80?'
tRp1272
sg16
g143
sg18
F0.10000000000000001
sg19
I30
sg20
g160
sg22
F0.10000000000000001
sa(dp1273
g8
I50
sg9
g1259
sg13
I200
sg14
g10
(g11
S'<\xdfO\x8d\x97n\x82?'
tRp1274
sg16
g143
sg18
F0.10000000000000001
sg19
I30
sg20
g144
sg22
F0.10000000000000001
sa(dp1275
g8
I50
sg9
g1262
sg13
I200
sg14
g10
(g11
S'<\xdfO\x8d\x97n\x82?'
tRp1276
sg16
g143
sg18
F0.10000000000000001
sg19
I30
sg20
g148
sg22
F0.10000000000000001
sa(dp1277
g8
I50
sg9
g1265
sg13
I200
sg14
g10
(g11
S'<\xdfO\x8d\x97n\x82?'
tRp1278
sg16
g143
sg18
F0.10000000000000001
sg19
I30
sg20
g152
sg22
F0.10000000000000001
sa(dp1279
g8
I50
sg9
g1268
sg13
I200
sg14
g10
(g11
S'<\xdfO\x8d\x97n\x82?'
tRp1280
sg16
g143
sg18
F0.10000000000000001
sg19
I30
sg20
g156
sg22
F0.10000000000000001
sa(dp1281
g8
I50
sg9
g1271
sg13
I200
sg14
g10
(g11
S'<\xdfO\x8d\x97n\x82?'
tRp1282
sg16
g143
sg18
F0.10000000000000001
sg19
I30
sg20
g160
sg22
F0.10000000000000001
sa(dp1283
g8
I50
sg9
g1259
sg13
I200
sg14
g10
(g11
S'{\x14\xaeG\xe1z\x84?'
tRp1284
sg16
g143
sg18
F0.10000000000000001
sg19
I30
sg20
g144
sg22
F0.10000000000000001
sa(dp1285
g8
I50
sg9
g1262
sg13
I200
sg14
g10
(g11
S'{\x14\xaeG\xe1z\x84?'
tRp1286
sg16
g143
sg18
F0.10000000000000001
sg19
I30
sg20
g148
sg22
F0.10000000000000001
sa(dp1287
g8
I50
sg9
g1265
sg13
I200
sg14
g10
(g11
S'{\x14\xaeG\xe1z\x84?'
tRp1288
sg16
g143
sg18
F0.10000000000000001
sg19
I30
sg20
g152
sg22
F0.10000000000000001
sa(dp1289
g8
I50
sg9
g1268
sg13
I200
sg14
g10
(g11
S'{\x14\xaeG\xe1z\x84?'
tRp1290
sg16
g143
sg18
F0.10000000000000001
sg19
I30
sg20
g156
sg22
F0.10000000000000001
sa(dp1291
g8
I50
sg9
g1271
sg13
I200
sg14
g10
(g11
S'{\x14\xaeG\xe1z\x84?'
tRp1292
sg16
g143
sg18
F0.10000000000000001
sg19
I30
sg20
g160
sg22
F0.10000000000000001
sa(dp1293
g8
I50
sg9
g1259
sg13
I200
sg14
g10
(g11
S'\xbaI\x0c\x02+\x87\x86?'
tRp1294
sg16
g143
sg18
F0.10000000000000001
sg19
I30
sg20
g144
sg22
F0.10000000000000001
sa(dp1295
g8
I50
sg9
g1262
sg13
I200
sg14
g10
(g11
S'\xbaI\x0c\x02+\x87\x86?'
tRp1296
sg16
g143
sg18
F0.10000000000000001
sg19
I30
sg20
g148
sg22
F0.10000000000000001
sa(dp1297
g8
I50
sg9
g1265
sg13
I200
sg14
g10
(g11
S'\xbaI\x0c\x02+\x87\x86?'
tRp1298
sg16
g143
sg18
F0.10000000000000001
sg19
I30
sg20
g152
sg22
F0.10000000000000001
sa(dp1299
g8
I50
sg9
g1268
sg13
I200
sg14
g10
(g11
S'\xbaI\x0c\x02+\x87\x86?'
tRp1300
sg16
g143
sg18
F0.10000000000000001
sg19
I30
sg20
g156
sg22
F0.10000000000000001
sa(dp1301
g8
I50
sg9
g1271
sg13
I200
sg14
g10
(g11
S'\xbaI\x0c\x02+\x87\x86?'
tRp1302
sg16
g143
sg18
F0.10000000000000001
sg19
I30
sg20
g160
sg22
F0.10000000000000001
sa(dp1303
g8
I50
sg9
g1259
sg13
I200
sg14
g10
(g11
S'\xfa~j\xbct\x93\x88?'
tRp1304
sg16
g143
sg18
F0.10000000000000001
sg19
I30
sg20
g144
sg22
F0.10000000000000001
sa(dp1305
g8
I50
sg9
g1262
sg13
I200
sg14
g10
(g11
S'\xfa~j\xbct\x93\x88?'
tRp1306
sg16
g143
sg18
F0.10000000000000001
sg19
I30
sg20
g148
sg22
F0.10000000000000001
sa(dp1307
g8
I50
sg9
g1265
sg13
I200
sg14
g10
(g11
S'\xfa~j\xbct\x93\x88?'
tRp1308
sg16
g143
sg18
F0.10000000000000001
sg19
I30
sg20
g152
sg22
F0.10000000000000001
sa(dp1309
g8
I50
sg9
g1268
sg13
I200
sg14
g10
(g11
S'\xfa~j\xbct\x93\x88?'
tRp1310
sg16
g143
sg18
F0.10000000000000001
sg19
I30
sg20
g156
sg22
F0.10000000000000001
sa(dp1311
g8
I50
sg9
g1271
sg13
I200
sg14
g10
(g11
S'\xfa~j\xbct\x93\x88?'
tRp1312
sg16
g143
sg18
F0.10000000000000001
sg19
I30
sg20
g160
sg22
F0.10000000000000001
sa(dp1313
g8
I50
sg9
g10
(g11
S'y\xe9&1\x08\xac|?'
tRp1314
sg13
I200
sg14
g10
(g11
S'\xfc\xa9\xf1\xd2Mb\x80?'
tRp1315
sg16
g204
sg18
F0.10000000000000001
sg19
I30
sg20
g205
sg22
F0.10000000000000001
sa(dp1316
g8
I50
sg9
g10
(g11
S'y\xe9&1\x08\xac|?'
tRp1317
sg13
I200
sg14
g10
(g11
S'\xfc\xa9\xf1\xd2Mb\x80?'
tRp1318
sg16
g204
sg18
F0.10000000000000001
sg19
I30
sg20
g209
sg22
F0.10000000000000001
sa(dp1319
g8
I50
sg9
g10
(g11
S'y\xe9&1\x08\xac|?'
tRp1320
sg13
I200
sg14
g10
(g11
S'\xfc\xa9\xf1\xd2Mb\x80?'
tRp1321
sg16
g204
sg18
F0.10000000000000001
sg19
I30
sg20
g213
sg22
F0.10000000000000001
sa(dp1322
g8
I50
sg9
g10
(g11
S'y\xe9&1\x08\xac|?'
tRp1323
sg13
I200
sg14
g10
(g11
S'\xfc\xa9\xf1\xd2Mb\x80?'
tRp1324
sg16
g204
sg18
F0.10000000000000001
sg19
I30
sg20
g217
sg22
F0.10000000000000001
sa(dp1325
g8
I50
sg9
g10
(g11
S'y\xe9&1\x08\xac|?'
tRp1326
sg13
I200
sg14
g10
(g11
S'\xfc\xa9\xf1\xd2Mb\x80?'
tRp1327
sg16
g204
sg18
F0.10000000000000001
sg19
I30
sg20
g221
sg22
F0.10000000000000001
sa(dp1328
g8
I50
sg9
g1314
sg13
I200
sg14
g10
(g11
S'<\xdfO\x8d\x97n\x82?'
tRp1329
sg16
g204
sg18
F0.10000000000000001
sg19
I30
sg20
g205
sg22
F0.10000000000000001
sa(dp1330
g8
I50
sg9
g1317
sg13
I200
sg14
g10
(g11
S'<\xdfO\x8d\x97n\x82?'
tRp1331
sg16
g204
sg18
F0.10000000000000001
sg19
I30
sg20
g209
sg22
F0.10000000000000001
sa(dp1332
g8
I50
sg9
g1320
sg13
I200
sg14
g10
(g11
S'<\xdfO\x8d\x97n\x82?'
tRp1333
sg16
g204
sg18
F0.10000000000000001
sg19
I30
sg20
g213
sg22
F0.10000000000000001
sa(dp1334
g8
I50
sg9
g1323
sg13
I200
sg14
g10
(g11
S'<\xdfO\x8d\x97n\x82?'
tRp1335
sg16
g204
sg18
F0.10000000000000001
sg19
I30
sg20
g217
sg22
F0.10000000000000001
sa(dp1336
g8
I50
sg9
g1326
sg13
I200
sg14
g10
(g11
S'<\xdfO\x8d\x97n\x82?'
tRp1337
sg16
g204
sg18
F0.10000000000000001
sg19
I30
sg20
g221
sg22
F0.10000000000000001
sa(dp1338
g8
I50
sg9
g1314
sg13
I200
sg14
g10
(g11
S'{\x14\xaeG\xe1z\x84?'
tRp1339
sg16
g204
sg18
F0.10000000000000001
sg19
I30
sg20
g205
sg22
F0.10000000000000001
sa(dp1340
g8
I50
sg9
g1317
sg13
I200
sg14
g10
(g11
S'{\x14\xaeG\xe1z\x84?'
tRp1341
sg16
g204
sg18
F0.10000000000000001
sg19
I30
sg20
g209
sg22
F0.10000000000000001
sa(dp1342
g8
I50
sg9
g1320
sg13
I200
sg14
g10
(g11
S'{\x14\xaeG\xe1z\x84?'
tRp1343
sg16
g204
sg18
F0.10000000000000001
sg19
I30
sg20
g213
sg22
F0.10000000000000001
sa(dp1344
g8
I50
sg9
g1323
sg13
I200
sg14
g10
(g11
S'{\x14\xaeG\xe1z\x84?'
tRp1345
sg16
g204
sg18
F0.10000000000000001
sg19
I30
sg20
g217
sg22
F0.10000000000000001
sa(dp1346
g8
I50
sg9
g1326
sg13
I200
sg14
g10
(g11
S'{\x14\xaeG\xe1z\x84?'
tRp1347
sg16
g204
sg18
F0.10000000000000001
sg19
I30
sg20
g221
sg22
F0.10000000000000001
sa(dp1348
g8
I50
sg9
g1314
sg13
I200
sg14
g10
(g11
S'\xbaI\x0c\x02+\x87\x86?'
tRp1349
sg16
g204
sg18
F0.10000000000000001
sg19
I30
sg20
g205
sg22
F0.10000000000000001
sa(dp1350
g8
I50
sg9
g1317
sg13
I200
sg14
g10
(g11
S'\xbaI\x0c\x02+\x87\x86?'
tRp1351
sg16
g204
sg18
F0.10000000000000001
sg19
I30
sg20
g209
sg22
F0.10000000000000001
sa(dp1352
g8
I50
sg9
g1320
sg13
I200
sg14
g10
(g11
S'\xbaI\x0c\x02+\x87\x86?'
tRp1353
sg16
g204
sg18
F0.10000000000000001
sg19
I30
sg20
g213
sg22
F0.10000000000000001
sa(dp1354
g8
I50
sg9
g1323
sg13
I200
sg14
g10
(g11
S'\xbaI\x0c\x02+\x87\x86?'
tRp1355
sg16
g204
sg18
F0.10000000000000001
sg19
I30
sg20
g217
sg22
F0.10000000000000001
sa(dp1356
g8
I50
sg9
g1326
sg13
I200
sg14
g10
(g11
S'\xbaI\x0c\x02+\x87\x86?'
tRp1357
sg16
g204
sg18
F0.10000000000000001
sg19
I30
sg20
g221
sg22
F0.10000000000000001
sa(dp1358
g8
I50
sg9
g1314
sg13
I200
sg14
g10
(g11
S'\xfa~j\xbct\x93\x88?'
tRp1359
sg16
g204
sg18
F0.10000000000000001
sg19
I30
sg20
g205
sg22
F0.10000000000000001
sa(dp1360
g8
I50
sg9
g1317
sg13
I200
sg14
g10
(g11
S'\xfa~j\xbct\x93\x88?'
tRp1361
sg16
g204
sg18
F0.10000000000000001
sg19
I30
sg20
g209
sg22
F0.10000000000000001
sa(dp1362
g8
I50
sg9
g1320
sg13
I200
sg14
g10
(g11
S'\xfa~j\xbct\x93\x88?'
tRp1363
sg16
g204
sg18
F0.10000000000000001
sg19
I30
sg20
g213
sg22
F0.10000000000000001
sa(dp1364
g8
I50
sg9
g1323
sg13
I200
sg14
g10
(g11
S'\xfa~j\xbct\x93\x88?'
tRp1365
sg16
g204
sg18
F0.10000000000000001
sg19
I30
sg20
g217
sg22
F0.10000000000000001
sa(dp1366
g8
I50
sg9
g1326
sg13
I200
sg14
g10
(g11
S'\xfa~j\xbct\x93\x88?'
tRp1367
sg16
g204
sg18
F0.10000000000000001
sg19
I30
sg20
g221
sg22
F0.10000000000000001
sa(dp1368
g8
I50
sg9
g10
(g11
S'y\xe9&1\x08\xac|?'
tRp1369
sg13
I200
sg14
g10
(g11
S'\xfc\xa9\xf1\xd2Mb\x80?'
tRp1370
sg16
g265
sg18
F0.10000000000000001
sg19
I30
sg20
g266
sg22
F0.10000000000000001
sa(dp1371
g8
I50
sg9
g10
(g11
S'y\xe9&1\x08\xac|?'
tRp1372
sg13
I200
sg14
g10
(g11
S'\xfc\xa9\xf1\xd2Mb\x80?'
tRp1373
sg16
g265
sg18
F0.10000000000000001
sg19
I30
sg20
g270
sg22
F0.10000000000000001
sa(dp1374
g8
I50
sg9
g10
(g11
S'y\xe9&1\x08\xac|?'
tRp1375
sg13
I200
sg14
g10
(g11
S'\xfc\xa9\xf1\xd2Mb\x80?'
tRp1376
sg16
g265
sg18
F0.10000000000000001
sg19
I30
sg20
g274
sg22
F0.10000000000000001
sa(dp1377
g8
I50
sg9
g10
(g11
S'y\xe9&1\x08\xac|?'
tRp1378
sg13
I200
sg14
g10
(g11
S'\xfc\xa9\xf1\xd2Mb\x80?'
tRp1379
sg16
g265
sg18
F0.10000000000000001
sg19
I30
sg20
g278
sg22
F0.10000000000000001
sa(dp1380
g8
I50
sg9
g10
(g11
S'y\xe9&1\x08\xac|?'
tRp1381
sg13
I200
sg14
g10
(g11
S'\xfc\xa9\xf1\xd2Mb\x80?'
tRp1382
sg16
g265
sg18
F0.10000000000000001
sg19
I30
sg20
g282
sg22
F0.10000000000000001
sa(dp1383
g8
I50
sg9
g1369
sg13
I200
sg14
g10
(g11
S'<\xdfO\x8d\x97n\x82?'
tRp1384
sg16
g265
sg18
F0.10000000000000001
sg19
I30
sg20
g266
sg22
F0.10000000000000001
sa(dp1385
g8
I50
sg9
g1372
sg13
I200
sg14
g10
(g11
S'<\xdfO\x8d\x97n\x82?'
tRp1386
sg16
g265
sg18
F0.10000000000000001
sg19
I30
sg20
g270
sg22
F0.10000000000000001
sa(dp1387
g8
I50
sg9
g1375
sg13
I200
sg14
g10
(g11
S'<\xdfO\x8d\x97n\x82?'
tRp1388
sg16
g265
sg18
F0.10000000000000001
sg19
I30
sg20
g274
sg22
F0.10000000000000001
sa(dp1389
g8
I50
sg9
g1378
sg13
I200
sg14
g10
(g11
S'<\xdfO\x8d\x97n\x82?'
tRp1390
sg16
g265
sg18
F0.10000000000000001
sg19
I30
sg20
g278
sg22
F0.10000000000000001
sa(dp1391
g8
I50
sg9
g1381
sg13
I200
sg14
g10
(g11
S'<\xdfO\x8d\x97n\x82?'
tRp1392
sg16
g265
sg18
F0.10000000000000001
sg19
I30
sg20
g282
sg22
F0.10000000000000001
sa(dp1393
g8
I50
sg9
g1369
sg13
I200
sg14
g10
(g11
S'{\x14\xaeG\xe1z\x84?'
tRp1394
sg16
g265
sg18
F0.10000000000000001
sg19
I30
sg20
g266
sg22
F0.10000000000000001
sa(dp1395
g8
I50
sg9
g1372
sg13
I200
sg14
g10
(g11
S'{\x14\xaeG\xe1z\x84?'
tRp1396
sg16
g265
sg18
F0.10000000000000001
sg19
I30
sg20
g270
sg22
F0.10000000000000001
sa(dp1397
g8
I50
sg9
g1375
sg13
I200
sg14
g10
(g11
S'{\x14\xaeG\xe1z\x84?'
tRp1398
sg16
g265
sg18
F0.10000000000000001
sg19
I30
sg20
g274
sg22
F0.10000000000000001
sa(dp1399
g8
I50
sg9
g1378
sg13
I200
sg14
g10
(g11
S'{\x14\xaeG\xe1z\x84?'
tRp1400
sg16
g265
sg18
F0.10000000000000001
sg19
I30
sg20
g278
sg22
F0.10000000000000001
sa(dp1401
g8
I50
sg9
g1381
sg13
I200
sg14
g10
(g11
S'{\x14\xaeG\xe1z\x84?'
tRp1402
sg16
g265
sg18
F0.10000000000000001
sg19
I30
sg20
g282
sg22
F0.10000000000000001
sa(dp1403
g8
I50
sg9
g1369
sg13
I200
sg14
g10
(g11
S'\xbaI\x0c\x02+\x87\x86?'
tRp1404
sg16
g265
sg18
F0.10000000000000001
sg19
I30
sg20
g266
sg22
F0.10000000000000001
sa(dp1405
g8
I50
sg9
g1372
sg13
I200
sg14
g10
(g11
S'\xbaI\x0c\x02+\x87\x86?'
tRp1406
sg16
g265
sg18
F0.10000000000000001
sg19
I30
sg20
g270
sg22
F0.10000000000000001
sa(dp1407
g8
I50
sg9
g1375
sg13
I200
sg14
g10
(g11
S'\xbaI\x0c\x02+\x87\x86?'
tRp1408
sg16
g265
sg18
F0.10000000000000001
sg19
I30
sg20
g274
sg22
F0.10000000000000001
sa(dp1409
g8
I50
sg9
g1378
sg13
I200
sg14
g10
(g11
S'\xbaI\x0c\x02+\x87\x86?'
tRp1410
sg16
g265
sg18
F0.10000000000000001
sg19
I30
sg20
g278
sg22
F0.10000000000000001
sa(dp1411
g8
I50
sg9
g1381
sg13
I200
sg14
g10
(g11
S'\xbaI\x0c\x02+\x87\x86?'
tRp1412
sg16
g265
sg18
F0.10000000000000001
sg19
I30
sg20
g282
sg22
F0.10000000000000001
sa(dp1413
g8
I50
sg9
g1369
sg13
I200
sg14
g10
(g11
S'\xfa~j\xbct\x93\x88?'
tRp1414
sg16
g265
sg18
F0.10000000000000001
sg19
I30
sg20
g266
sg22
F0.10000000000000001
sa(dp1415
g8
I50
sg9
g1372
sg13
I200
sg14
g10
(g11
S'\xfa~j\xbct\x93\x88?'
tRp1416
sg16
g265
sg18
F0.10000000000000001
sg19
I30
sg20
g270
sg22
F0.10000000000000001
sa(dp1417
g8
I50
sg9
g1375
sg13
I200
sg14
g10
(g11
S'\xfa~j\xbct\x93\x88?'
tRp1418
sg16
g265
sg18
F0.10000000000000001
sg19
I30
sg20
g274
sg22
F0.10000000000000001
sa(dp1419
g8
I50
sg9
g1378
sg13
I200
sg14
g10
(g11
S'\xfa~j\xbct\x93\x88?'
tRp1420
sg16
g265
sg18
F0.10000000000000001
sg19
I30
sg20
g278
sg22
F0.10000000000000001
sa(dp1421
g8
I50
sg9
g1381
sg13
I200
sg14
g10
(g11
S'\xfa~j\xbct\x93\x88?'
tRp1422
sg16
g265
sg18
F0.10000000000000001
sg19
I30
sg20
g282
sg22
F0.10000000000000001
satb.