cnumpy.core.multiarray
_reconstruct
p1
(cnumpy
ndarray
p2
(I0
tS'b'
tRp3
(I1
(I25
I25
tcnumpy
dtype
p4
(S'O8'
I0
I1
tRp5
(I3
S'|'
NNNI-1
I-1
I63
tbI00
(lp6
(dp7
S're'
p8
cnumpy.core.multiarray
scalar
p9
(g4
(S'f8'
I0
I1
tRp10
(I3
S'<'
NNNI-1
I-1
I0
tbS'\x00\x00\x00\x00\x00\x00$@'
tRp11
sS'we'
p12
g9
(g10
S'\xfc\xa9\xf1\xd2MbP?'
tRp13
sS'p_conn_it'
p14
F0.10000000000000001
sS'p_conn_et'
p15
F0.10000000000000001
sS'ri'
p16
g9
(g10
S'\x00\x00\x00\x00\x00\x00$@'
tRp17
sS'wi'
p18
g9
(g10
S'{\x14\xaeG\xe1zt?'
tRp19
sa(dp20
g8
g11
sg12
g9
(g10
S'\xfc\xa9\xf1\xd2MbP?'
tRp21
sg14
F0.10000000000000001
sg15
F0.10000000000000001
sg16
g9
(g10
S'\x00\x00\x00\x00\x00\x004@'
tRp22
sg18
g9
(g10
S'{\x14\xaeG\xe1zt?'
tRp23
sa(dp24
g8
g11
sg12
g9
(g10
S'\xfc\xa9\xf1\xd2MbP?'
tRp25
sg14
F0.10000000000000001
sg15
F0.10000000000000001
sg16
g9
(g10
S'\x00\x00\x00\x00\x00\x00>@'
tRp26
sg18
g9
(g10
S'{\x14\xaeG\xe1zt?'
tRp27
sa(dp28
g8
g11
sg12
g9
(g10
S'\xfc\xa9\xf1\xd2MbP?'
tRp29
sg14
F0.10000000000000001
sg15
F0.10000000000000001
sg16
g9
(g10
S'\x00\x00\x00\x00\x00\x00D@'
tRp30
sg18
g9
(g10
S'{\x14\xaeG\xe1zt?'
tRp31
sa(dp32
g8
g11
sg12
g9
(g10
S'\xfc\xa9\xf1\xd2MbP?'
tRp33
sg14
F0.10000000000000001
sg15
F0.10000000000000001
sg16
g9
(g10
S'\x00\x00\x00\x00\x00\x00I@'
tRp34
sg18
g9
(g10
S'{\x14\xaeG\xe1zt?'
tRp35
sa(dp36
g8
g11
sg12
g13
sg14
F0.10000000000000001
sg15
F0.10000000000000001
sg16
g17
sg18
g9
(g10
S'\xb8\x1e\x85\xebQ\xb8~?'
tRp37
sa(dp38
g8
g11
sg12
g21
sg14
F0.10000000000000001
sg15
F0.10000000000000001
sg16
g22
sg18
g9
(g10
S'\xb8\x1e\x85\xebQ\xb8~?'
tRp39
sa(dp40
g8
g11
sg12
g25
sg14
F0.10000000000000001
sg15
F0.10000000000000001
sg16
g26
sg18
g9
(g10
S'\xb8\x1e\x85\xebQ\xb8~?'
tRp41
sa(dp42
g8
g11
sg12
g29
sg14
F0.10000000000000001
sg15
F0.10000000000000001
sg16
g30
sg18
g9
(g10
S'\xb8\x1e\x85\xebQ\xb8~?'
tRp43
sa(dp44
g8
g11
sg12
g33
sg14
F0.10000000000000001
sg15
F0.10000000000000001
sg16
g34
sg18
g9
(g10
S'\xb8\x1e\x85\xebQ\xb8~?'
tRp45
sa(dp46
g8
g11
sg12
g13
sg14
F0.10000000000000001
sg15
F0.10000000000000001
sg16
g17
sg18
g9
(g10
S'z\x14\xaeG\xe1z\x84?'
tRp47
sa(dp48
g8
g11
sg12
g21
sg14
F0.10000000000000001
sg15
F0.10000000000000001
sg16
g22
sg18
g9
(g10
S'z\x14\xaeG\xe1z\x84?'
tRp49
sa(dp50
g8
g11
sg12
g25
sg14
F0.10000000000000001
sg15
F0.10000000000000001
sg16
g26
sg18
g9
(g10
S'z\x14\xaeG\xe1z\x84?'
tRp51
sa(dp52
g8
g11
sg12
g29
sg14
F0.10000000000000001
sg15
F0.10000000000000001
sg16
g30
sg18
g9
(g10
S'z\x14\xaeG\xe1z\x84?'
tRp53
sa(dp54
g8
g11
sg12
g33
sg14
F0.10000000000000001
sg15
F0.10000000000000001
sg16
g34
sg18
g9
(g10
S'z\x14\xaeG\xe1z\x84?'
tRp55
sa(dp56
g8
g11
sg12
g13
sg14
F0.10000000000000001
sg15
F0.10000000000000001
sg16
g17
sg18
g9
(g10
S'\x99\x99\x99\x99\x99\x99\x89?'
tRp57
sa(dp58
g8
g11
sg12
g21
sg14
F0.10000000000000001
sg15
F0.10000000000000001
sg16
g22
sg18
g9
(g10
S'\x99\x99\x99\x99\x99\x99\x89?'
tRp59
sa(dp60
g8
g11
sg12
g25
sg14
F0.10000000000000001
sg15
F0.10000000000000001
sg16
g26
sg18
g9
(g10
S'\x99\x99\x99\x99\x99\x99\x89?'
tRp61
sa(dp62
g8
g11
sg12
g29
sg14
F0.10000000000000001
sg15
F0.10000000000000001
sg16
g30
sg18
g9
(g10
S'\x99\x99\x99\x99\x99\x99\x89?'
tRp63
sa(dp64
g8
g11
sg12
g33
sg14
F0.10000000000000001
sg15
F0.10000000000000001
sg16
g34
sg18
g9
(g10
S'\x99\x99\x99\x99\x99\x99\x89?'
tRp65
sa(dp66
g8
g11
sg12
g13
sg14
F0.10000000000000001
sg15
F0.10000000000000001
sg16
g17
sg18
g9
(g10
S'\xb8\x1e\x85\xebQ\xb8\x8e?'
tRp67
sa(dp68
g8
g11
sg12
g21
sg14
F0.10000000000000001
sg15
F0.10000000000000001
sg16
g22
sg18
g9
(g10
S'\xb8\x1e\x85\xebQ\xb8\x8e?'
tRp69
sa(dp70
g8
g11
sg12
g25
sg14
F0.10000000000000001
sg15
F0.10000000000000001
sg16
g26
sg18
g9
(g10
S'\xb8\x1e\x85\xebQ\xb8\x8e?'
tRp71
sa(dp72
g8
g11
sg12
g29
sg14
F0.10000000000000001
sg15
F0.10000000000000001
sg16
g30
sg18
g9
(g10
S'\xb8\x1e\x85\xebQ\xb8\x8e?'
tRp73
sa(dp74
g8
g11
sg12
g33
sg14
F0.10000000000000001
sg15
F0.10000000000000001
sg16
g34
sg18
g9
(g10
S'\xb8\x1e\x85\xebQ\xb8\x8e?'
tRp75
sa(dp76
g8
g9
(g10
S'\x00\x00\x00\x00\x00\x004@'
tRp77
sg12
g9
(g10
S'\xfc\xa9\xf1\xd2MbP?'
tRp78
sg14
F0.10000000000000001
sg15
F0.10000000000000001
sg16
g9
(g10
S'\x00\x00\x00\x00\x00\x00$@'
tRp79
sg18
g9
(g10
S'{\x14\xaeG\xe1zt?'
tRp80
sa(dp81
g8
g77
sg12
g9
(g10
S'\xfc\xa9\xf1\xd2MbP?'
tRp82
sg14
F0.10000000000000001
sg15
F0.10000000000000001
sg16
g9
(g10
S'\x00\x00\x00\x00\x00\x004@'
tRp83
sg18
g9
(g10
S'{\x14\xaeG\xe1zt?'
tRp84
sa(dp85
g8
g77
sg12
g9
(g10
S'\xfc\xa9\xf1\xd2MbP?'
tRp86
sg14
F0.10000000000000001
sg15
F0.10000000000000001
sg16
g9
(g10
S'\x00\x00\x00\x00\x00\x00>@'
tRp87
sg18
g9
(g10
S'{\x14\xaeG\xe1zt?'
tRp88
sa(dp89
g8
g77
sg12
g9
(g10
S'\xfc\xa9\xf1\xd2MbP?'
tRp90
sg14
F0.10000000000000001
sg15
F0.10000000000000001
sg16
g9
(g10
S'\x00\x00\x00\x00\x00\x00D@'
tRp91
sg18
g9
(g10
S'{\x14\xaeG\xe1zt?'
tRp92
sa(dp93
g8
g77
sg12
g9
(g10
S'\xfc\xa9\xf1\xd2MbP?'
tRp94
sg14
F0.10000000000000001
sg15
F0.10000000000000001
sg16
g9
(g10
S'\x00\x00\x00\x00\x00\x00I@'
tRp95
sg18
g9
(g10
S'{\x14\xaeG\xe1zt?'
tRp96
sa(dp97
g8
g77
sg12
g78
sg14
F0.10000000000000001
sg15
F0.10000000000000001
sg16
g79
sg18
g9
(g10
S'\xb8\x1e\x85\xebQ\xb8~?'
tRp98
sa(dp99
g8
g77
sg12
g82
sg14
F0.10000000000000001
sg15
F0.10000000000000001
sg16
g83
sg18
g9
(g10
S'\xb8\x1e\x85\xebQ\xb8~?'
tRp100
sa(dp101
g8
g77
sg12
g86
sg14
F0.10000000000000001
sg15
F0.10000000000000001
sg16
g87
sg18
g9
(g10
S'\xb8\x1e\x85\xebQ\xb8~?'
tRp102
sa(dp103
g8
g77
sg12
g90
sg14
F0.10000000000000001
sg15
F0.10000000000000001
sg16
g91
sg18
g9
(g10
S'\xb8\x1e\x85\xebQ\xb8~?'
tRp104
sa(dp105
g8
g77
sg12
g94
sg14
F0.10000000000000001
sg15
F0.10000000000000001
sg16
g95
sg18
g9
(g10
S'\xb8\x1e\x85\xebQ\xb8~?'
tRp106
sa(dp107
g8
g77
sg12
g78
sg14
F0.10000000000000001
sg15
F0.10000000000000001
sg16
g79
sg18
g9
(g10
S'z\x14\xaeG\xe1z\x84?'
tRp108
sa(dp109
g8
g77
sg12
g82
sg14
F0.10000000000000001
sg15
F0.10000000000000001
sg16
g83
sg18
g9
(g10
S'z\x14\xaeG\xe1z\x84?'
tRp110
sa(dp111
g8
g77
sg12
g86
sg14
F0.10000000000000001
sg15
F0.10000000000000001
sg16
g87
sg18
g9
(g10
S'z\x14\xaeG\xe1z\x84?'
tRp112
sa(dp113
g8
g77
sg12
g90
sg14
F0.10000000000000001
sg15
F0.10000000000000001
sg16
g91
sg18
g9
(g10
S'z\x14\xaeG\xe1z\x84?'
tRp114
sa(dp115
g8
g77
sg12
g94
sg14
F0.10000000000000001
sg15
F0.10000000000000001
sg16
g95
sg18
g9
(g10
S'z\x14\xaeG\xe1z\x84?'
tRp116
sa(dp117
g8
g77
sg12
g78
sg14
F0.10000000000000001
sg15
F0.10000000000000001
sg16
g79
sg18
g9
(g10
S'\x99\x99\x99\x99\x99\x99\x89?'
tRp118
sa(dp119
g8
g77
sg12
g82
sg14
F0.10000000000000001
sg15
F0.10000000000000001
sg16
g83
sg18
g9
(g10
S'\x99\x99\x99\x99\x99\x99\x89?'
tRp120
sa(dp121
g8
g77
sg12
g86
sg14
F0.10000000000000001
sg15
F0.10000000000000001
sg16
g87
sg18
g9
(g10
S'\x99\x99\x99\x99\x99\x99\x89?'
tRp122
sa(dp123
g8
g77
sg12
g90
sg14
F0.10000000000000001
sg15
F0.10000000000000001
sg16
g91
sg18
g9
(g10
S'\x99\x99\x99\x99\x99\x99\x89?'
tRp124
sa(dp125
g8
g77
sg12
g94
sg14
F0.10000000000000001
sg15
F0.10000000000000001
sg16
g95
sg18
g9
(g10
S'\x99\x99\x99\x99\x99\x99\x89?'
tRp126
sa(dp127
g8
g77
sg12
g78
sg14
F0.10000000000000001
sg15
F0.10000000000000001
sg16
g79
sg18
g9
(g10
S'\xb8\x1e\x85\xebQ\xb8\x8e?'
tRp128
sa(dp129
g8
g77
sg12
g82
sg14
F0.10000000000000001
sg15
F0.10000000000000001
sg16
g83
sg18
g9
(g10
S'\xb8\x1e\x85\xebQ\xb8\x8e?'
tRp130
sa(dp131
g8
g77
sg12
g86
sg14
F0.10000000000000001
sg15
F0.10000000000000001
sg16
g87
sg18
g9
(g10
S'\xb8\x1e\x85\xebQ\xb8\x8e?'
tRp132
sa(dp133
g8
g77
sg12
g90
sg14
F0.10000000000000001
sg15
F0.10000000000000001
sg16
g91
sg18
g9
(g10
S'\xb8\x1e\x85\xebQ\xb8\x8e?'
tRp134
sa(dp135
g8
g77
sg12
g94
sg14
F0.10000000000000001
sg15
F0.10000000000000001
sg16
g95
sg18
g9
(g10
S'\xb8\x1e\x85\xebQ\xb8\x8e?'
tRp136
sa(dp137
g8
g9
(g10
S'\x00\x00\x00\x00\x00\x00>@'
tRp138
sg12
g9
(g10
S'\xfc\xa9\xf1\xd2MbP?'
tRp139
sg14
F0.10000000000000001
sg15
F0.10000000000000001
sg16
g9
(g10
S'\x00\x00\x00\x00\x00\x00$@'
tRp140
sg18
g9
(g10
S'{\x14\xaeG\xe1zt?'
tRp141
sa(dp142
g8
g138
sg12
g9
(g10
S'\xfc\xa9\xf1\xd2MbP?'
tRp143
sg14
F0.10000000000000001
sg15
F0.10000000000000001
sg16
g9
(g10
S'\x00\x00\x00\x00\x00\x004@'
tRp144
sg18
g9
(g10
S'{\x14\xaeG\xe1zt?'
tRp145
sa(dp146
g8
g138
sg12
g9
(g10
S'\xfc\xa9\xf1\xd2MbP?'
tRp147
sg14
F0.10000000000000001
sg15
F0.10000000000000001
sg16
g9
(g10
S'\x00\x00\x00\x00\x00\x00>@'
tRp148
sg18
g9
(g10
S'{\x14\xaeG\xe1zt?'
tRp149
sa(dp150
g8
g138
sg12
g9
(g10
S'\xfc\xa9\xf1\xd2MbP?'
tRp151
sg14
F0.10000000000000001
sg15
F0.10000000000000001
sg16
g9
(g10
S'\x00\x00\x00\x00\x00\x00D@'
tRp152
sg18
g9
(g10
S'{\x14\xaeG\xe1zt?'
tRp153
sa(dp154
g8
g138
sg12
g9
(g10
S'\xfc\xa9\xf1\xd2MbP?'
tRp155
sg14
F0.10000000000000001
sg15
F0.10000000000000001
sg16
g9
(g10
S'\x00\x00\x00\x00\x00\x00I@'
tRp156
sg18
g9
(g10
S'{\x14\xaeG\xe1zt?'
tRp157
sa(dp158
g8
g138
sg12
g139
sg14
F0.10000000000000001
sg15
F0.10000000000000001
sg16
g140
sg18
g9
(g10
S'\xb8\x1e\x85\xebQ\xb8~?'
tRp159
sa(dp160
g8
g138
sg12
g143
sg14
F0.10000000000000001
sg15
F0.10000000000000001
sg16
g144
sg18
g9
(g10
S'\xb8\x1e\x85\xebQ\xb8~?'
tRp161
sa(dp162
g8
g138
sg12
g147
sg14
F0.10000000000000001
sg15
F0.10000000000000001
sg16
g148
sg18
g9
(g10
S'\xb8\x1e\x85\xebQ\xb8~?'
tRp163
sa(dp164
g8
g138
sg12
g151
sg14
F0.10000000000000001
sg15
F0.10000000000000001
sg16
g152
sg18
g9
(g10
S'\xb8\x1e\x85\xebQ\xb8~?'
tRp165
sa(dp166
g8
g138
sg12
g155
sg14
F0.10000000000000001
sg15
F0.10000000000000001
sg16
g156
sg18
g9
(g10
S'\xb8\x1e\x85\xebQ\xb8~?'
tRp167
sa(dp168
g8
g138
sg12
g139
sg14
F0.10000000000000001
sg15
F0.10000000000000001
sg16
g140
sg18
g9
(g10
S'z\x14\xaeG\xe1z\x84?'
tRp169
sa(dp170
g8
g138
sg12
g143
sg14
F0.10000000000000001
sg15
F0.10000000000000001
sg16
g144
sg18
g9
(g10
S'z\x14\xaeG\xe1z\x84?'
tRp171
sa(dp172
g8
g138
sg12
g147
sg14
F0.10000000000000001
sg15
F0.10000000000000001
sg16
g148
sg18
g9
(g10
S'z\x14\xaeG\xe1z\x84?'
tRp173
sa(dp174
g8
g138
sg12
g151
sg14
F0.10000000000000001
sg15
F0.10000000000000001
sg16
g152
sg18
g9
(g10
S'z\x14\xaeG\xe1z\x84?'
tRp175
sa(dp176
g8
g138
sg12
g155
sg14
F0.10000000000000001
sg15
F0.10000000000000001
sg16
g156
sg18
g9
(g10
S'z\x14\xaeG\xe1z\x84?'
tRp177
sa(dp178
g8
g138
sg12
g139
sg14
F0.10000000000000001
sg15
F0.10000000000000001
sg16
g140
sg18
g9
(g10
S'\x99\x99\x99\x99\x99\x99\x89?'
tRp179
sa(dp180
g8
g138
sg12
g143
sg14
F0.10000000000000001
sg15
F0.10000000000000001
sg16
g144
sg18
g9
(g10
S'\x99\x99\x99\x99\x99\x99\x89?'
tRp181
sa(dp182
g8
g138
sg12
g147
sg14
F0.10000000000000001
sg15
F0.10000000000000001
sg16
g148
sg18
g9
(g10
S'\x99\x99\x99\x99\x99\x99\x89?'
tRp183
sa(dp184
g8
g138
sg12
g151
sg14
F0.10000000000000001
sg15
F0.10000000000000001
sg16
g152
sg18
g9
(g10
S'\x99\x99\x99\x99\x99\x99\x89?'
tRp185
sa(dp186
g8
g138
sg12
g155
sg14
F0.10000000000000001
sg15
F0.10000000000000001
sg16
g156
sg18
g9
(g10
S'\x99\x99\x99\x99\x99\x99\x89?'
tRp187
sa(dp188
g8
g138
sg12
g139
sg14
F0.10000000000000001
sg15
F0.10000000000000001
sg16
g140
sg18
g9
(g10
S'\xb8\x1e\x85\xebQ\xb8\x8e?'
tRp189
sa(dp190
g8
g138
sg12
g143
sg14
F0.10000000000000001
sg15
F0.10000000000000001
sg16
g144
sg18
g9
(g10
S'\xb8\x1e\x85\xebQ\xb8\x8e?'
tRp191
sa(dp192
g8
g138
sg12
g147
sg14
F0.10000000000000001
sg15
F0.10000000000000001
sg16
g148
sg18
g9
(g10
S'\xb8\x1e\x85\xebQ\xb8\x8e?'
tRp193
sa(dp194
g8
g138
sg12
g151
sg14
F0.10000000000000001
sg15
F0.10000000000000001
sg16
g152
sg18
g9
(g10
S'\xb8\x1e\x85\xebQ\xb8\x8e?'
tRp195
sa(dp196
g8
g138
sg12
g155
sg14
F0.10000000000000001
sg15
F0.10000000000000001
sg16
g156
sg18
g9
(g10
S'\xb8\x1e\x85\xebQ\xb8\x8e?'
tRp197
sa(dp198
g8
g9
(g10
S'\x00\x00\x00\x00\x00\x00D@'
tRp199
sg12
g9
(g10
S'\xfc\xa9\xf1\xd2MbP?'
tRp200
sg14
F0.10000000000000001
sg15
F0.10000000000000001
sg16
g9
(g10
S'\x00\x00\x00\x00\x00\x00$@'
tRp201
sg18
g9
(g10
S'{\x14\xaeG\xe1zt?'
tRp202
sa(dp203
g8
g199
sg12
g9
(g10
S'\xfc\xa9\xf1\xd2MbP?'
tRp204
sg14
F0.10000000000000001
sg15
F0.10000000000000001
sg16
g9
(g10
S'\x00\x00\x00\x00\x00\x004@'
tRp205
sg18
g9
(g10
S'{\x14\xaeG\xe1zt?'
tRp206
sa(dp207
g8
g199
sg12
g9
(g10
S'\xfc\xa9\xf1\xd2MbP?'
tRp208
sg14
F0.10000000000000001
sg15
F0.10000000000000001
sg16
g9
(g10
S'\x00\x00\x00\x00\x00\x00>@'
tRp209
sg18
g9
(g10
S'{\x14\xaeG\xe1zt?'
tRp210
sa(dp211
g8
g199
sg12
g9
(g10
S'\xfc\xa9\xf1\xd2MbP?'
tRp212
sg14
F0.10000000000000001
sg15
F0.10000000000000001
sg16
g9
(g10
S'\x00\x00\x00\x00\x00\x00D@'
tRp213
sg18
g9
(g10
S'{\x14\xaeG\xe1zt?'
tRp214
sa(dp215
g8
g199
sg12
g9
(g10
S'\xfc\xa9\xf1\xd2MbP?'
tRp216
sg14
F0.10000000000000001
sg15
F0.10000000000000001
sg16
g9
(g10
S'\x00\x00\x00\x00\x00\x00I@'
tRp217
sg18
g9
(g10
S'{\x14\xaeG\xe1zt?'
tRp218
sa(dp219
g8
g199
sg12
g200
sg14
F0.10000000000000001
sg15
F0.10000000000000001
sg16
g201
sg18
g9
(g10
S'\xb8\x1e\x85\xebQ\xb8~?'
tRp220
sa(dp221
g8
g199
sg12
g204
sg14
F0.10000000000000001
sg15
F0.10000000000000001
sg16
g205
sg18
g9
(g10
S'\xb8\x1e\x85\xebQ\xb8~?'
tRp222
sa(dp223
g8
g199
sg12
g208
sg14
F0.10000000000000001
sg15
F0.10000000000000001
sg16
g209
sg18
g9
(g10
S'\xb8\x1e\x85\xebQ\xb8~?'
tRp224
sa(dp225
g8
g199
sg12
g212
sg14
F0.10000000000000001
sg15
F0.10000000000000001
sg16
g213
sg18
g9
(g10
S'\xb8\x1e\x85\xebQ\xb8~?'
tRp226
sa(dp227
g8
g199
sg12
g216
sg14
F0.10000000000000001
sg15
F0.10000000000000001
sg16
g217
sg18
g9
(g10
S'\xb8\x1e\x85\xebQ\xb8~?'
tRp228
sa(dp229
g8
g199
sg12
g200
sg14
F0.10000000000000001
sg15
F0.10000000000000001
sg16
g201
sg18
g9
(g10
S'z\x14\xaeG\xe1z\x84?'
tRp230
sa(dp231
g8
g199
sg12
g204
sg14
F0.10000000000000001
sg15
F0.10000000000000001
sg16
g205
sg18
g9
(g10
S'z\x14\xaeG\xe1z\x84?'
tRp232
sa(dp233
g8
g199
sg12
g208
sg14
F0.10000000000000001
sg15
F0.10000000000000001
sg16
g209
sg18
g9
(g10
S'z\x14\xaeG\xe1z\x84?'
tRp234
sa(dp235
g8
g199
sg12
g212
sg14
F0.10000000000000001
sg15
F0.10000000000000001
sg16
g213
sg18
g9
(g10
S'z\x14\xaeG\xe1z\x84?'
tRp236
sa(dp237
g8
g199
sg12
g216
sg14
F0.10000000000000001
sg15
F0.10000000000000001
sg16
g217
sg18
g9
(g10
S'z\x14\xaeG\xe1z\x84?'
tRp238
sa(dp239
g8
g199
sg12
g200
sg14
F0.10000000000000001
sg15
F0.10000000000000001
sg16
g201
sg18
g9
(g10
S'\x99\x99\x99\x99\x99\x99\x89?'
tRp240
sa(dp241
g8
g199
sg12
g204
sg14
F0.10000000000000001
sg15
F0.10000000000000001
sg16
g205
sg18
g9
(g10
S'\x99\x99\x99\x99\x99\x99\x89?'
tRp242
sa(dp243
g8
g199
sg12
g208
sg14
F0.10000000000000001
sg15
F0.10000000000000001
sg16
g209
sg18
g9
(g10
S'\x99\x99\x99\x99\x99\x99\x89?'
tRp244
sa(dp245
g8
g199
sg12
g212
sg14
F0.10000000000000001
sg15
F0.10000000000000001
sg16
g213
sg18
g9
(g10
S'\x99\x99\x99\x99\x99\x99\x89?'
tRp246
sa(dp247
g8
g199
sg12
g216
sg14
F0.10000000000000001
sg15
F0.10000000000000001
sg16
g217
sg18
g9
(g10
S'\x99\x99\x99\x99\x99\x99\x89?'
tRp248
sa(dp249
g8
g199
sg12
g200
sg14
F0.10000000000000001
sg15
F0.10000000000000001
sg16
g201
sg18
g9
(g10
S'\xb8\x1e\x85\xebQ\xb8\x8e?'
tRp250
sa(dp251
g8
g199
sg12
g204
sg14
F0.10000000000000001
sg15
F0.10000000000000001
sg16
g205
sg18
g9
(g10
S'\xb8\x1e\x85\xebQ\xb8\x8e?'
tRp252
sa(dp253
g8
g199
sg12
g208
sg14
F0.10000000000000001
sg15
F0.10000000000000001
sg16
g209
sg18
g9
(g10
S'\xb8\x1e\x85\xebQ\xb8\x8e?'
tRp254
sa(dp255
g8
g199
sg12
g212
sg14
F0.10000000000000001
sg15
F0.10000000000000001
sg16
g213
sg18
g9
(g10
S'\xb8\x1e\x85\xebQ\xb8\x8e?'
tRp256
sa(dp257
g8
g199
sg12
g216
sg14
F0.10000000000000001
sg15
F0.10000000000000001
sg16
g217
sg18
g9
(g10
S'\xb8\x1e\x85\xebQ\xb8\x8e?'
tRp258
sa(dp259
g8
g9
(g10
S'\x00\x00\x00\x00\x00\x00I@'
tRp260
sg12
g9
(g10
S'\xfc\xa9\xf1\xd2MbP?'
tRp261
sg14
F0.10000000000000001
sg15
F0.10000000000000001
sg16
g9
(g10
S'\x00\x00\x00\x00\x00\x00$@'
tRp262
sg18
g9
(g10
S'{\x14\xaeG\xe1zt?'
tRp263
sa(dp264
g8
g260
sg12
g9
(g10
S'\xfc\xa9\xf1\xd2MbP?'
tRp265
sg14
F0.10000000000000001
sg15
F0.10000000000000001
sg16
g9
(g10
S'\x00\x00\x00\x00\x00\x004@'
tRp266
sg18
g9
(g10
S'{\x14\xaeG\xe1zt?'
tRp267
sa(dp268
g8
g260
sg12
g9
(g10
S'\xfc\xa9\xf1\xd2MbP?'
tRp269
sg14
F0.10000000000000001
sg15
F0.10000000000000001
sg16
g9
(g10
S'\x00\x00\x00\x00\x00\x00>@'
tRp270
sg18
g9
(g10
S'{\x14\xaeG\xe1zt?'
tRp271
sa(dp272
g8
g260
sg12
g9
(g10
S'\xfc\xa9\xf1\xd2MbP?'
tRp273
sg14
F0.10000000000000001
sg15
F0.10000000000000001
sg16
g9
(g10
S'\x00\x00\x00\x00\x00\x00D@'
tRp274
sg18
g9
(g10
S'{\x14\xaeG\xe1zt?'
tRp275
sa(dp276
g8
g260
sg12
g9
(g10
S'\xfc\xa9\xf1\xd2MbP?'
tRp277
sg14
F0.10000000000000001
sg15
F0.10000000000000001
sg16
g9
(g10
S'\x00\x00\x00\x00\x00\x00I@'
tRp278
sg18
g9
(g10
S'{\x14\xaeG\xe1zt?'
tRp279
sa(dp280
g8
g260
sg12
g261
sg14
F0.10000000000000001
sg15
F0.10000000000000001
sg16
g262
sg18
g9
(g10
S'\xb8\x1e\x85\xebQ\xb8~?'
tRp281
sa(dp282
g8
g260
sg12
g265
sg14
F0.10000000000000001
sg15
F0.10000000000000001
sg16
g266
sg18
g9
(g10
S'\xb8\x1e\x85\xebQ\xb8~?'
tRp283
sa(dp284
g8
g260
sg12
g269
sg14
F0.10000000000000001
sg15
F0.10000000000000001
sg16
g270
sg18
g9
(g10
S'\xb8\x1e\x85\xebQ\xb8~?'
tRp285
sa(dp286
g8
g260
sg12
g273
sg14
F0.10000000000000001
sg15
F0.10000000000000001
sg16
g274
sg18
g9
(g10
S'\xb8\x1e\x85\xebQ\xb8~?'
tRp287
sa(dp288
g8
g260
sg12
g277
sg14
F0.10000000000000001
sg15
F0.10000000000000001
sg16
g278
sg18
g9
(g10
S'\xb8\x1e\x85\xebQ\xb8~?'
tRp289
sa(dp290
g8
g260
sg12
g261
sg14
F0.10000000000000001
sg15
F0.10000000000000001
sg16
g262
sg18
g9
(g10
S'z\x14\xaeG\xe1z\x84?'
tRp291
sa(dp292
g8
g260
sg12
g265
sg14
F0.10000000000000001
sg15
F0.10000000000000001
sg16
g266
sg18
g9
(g10
S'z\x14\xaeG\xe1z\x84?'
tRp293
sa(dp294
g8
g260
sg12
g269
sg14
F0.10000000000000001
sg15
F0.10000000000000001
sg16
g270
sg18
g9
(g10
S'z\x14\xaeG\xe1z\x84?'
tRp295
sa(dp296
g8
g260
sg12
g273
sg14
F0.10000000000000001
sg15
F0.10000000000000001
sg16
g274
sg18
g9
(g10
S'z\x14\xaeG\xe1z\x84?'
tRp297
sa(dp298
g8
g260
sg12
g277
sg14
F0.10000000000000001
sg15
F0.10000000000000001
sg16
g278
sg18
g9
(g10
S'z\x14\xaeG\xe1z\x84?'
tRp299
sa(dp300
g8
g260
sg12
g261
sg14
F0.10000000000000001
sg15
F0.10000000000000001
sg16
g262
sg18
g9
(g10
S'\x99\x99\x99\x99\x99\x99\x89?'
tRp301
sa(dp302
g8
g260
sg12
g265
sg14
F0.10000000000000001
sg15
F0.10000000000000001
sg16
g266
sg18
g9
(g10
S'\x99\x99\x99\x99\x99\x99\x89?'
tRp303
sa(dp304
g8
g260
sg12
g269
sg14
F0.10000000000000001
sg15
F0.10000000000000001
sg16
g270
sg18
g9
(g10
S'\x99\x99\x99\x99\x99\x99\x89?'
tRp305
sa(dp306
g8
g260
sg12
g273
sg14
F0.10000000000000001
sg15
F0.10000000000000001
sg16
g274
sg18
g9
(g10
S'\x99\x99\x99\x99\x99\x99\x89?'
tRp307
sa(dp308
g8
g260
sg12
g277
sg14
F0.10000000000000001
sg15
F0.10000000000000001
sg16
g278
sg18
g9
(g10
S'\x99\x99\x99\x99\x99\x99\x89?'
tRp309
sa(dp310
g8
g260
sg12
g261
sg14
F0.10000000000000001
sg15
F0.10000000000000001
sg16
g262
sg18
g9
(g10
S'\xb8\x1e\x85\xebQ\xb8\x8e?'
tRp311
sa(dp312
g8
g260
sg12
g265
sg14
F0.10000000000000001
sg15
F0.10000000000000001
sg16
g266
sg18
g9
(g10
S'\xb8\x1e\x85\xebQ\xb8\x8e?'
tRp313
sa(dp314
g8
g260
sg12
g269
sg14
F0.10000000000000001
sg15
F0.10000000000000001
sg16
g270
sg18
g9
(g10
S'\xb8\x1e\x85\xebQ\xb8\x8e?'
tRp315
sa(dp316
g8
g260
sg12
g273
sg14
F0.10000000000000001
sg15
F0.10000000000000001
sg16
g274
sg18
g9
(g10
S'\xb8\x1e\x85\xebQ\xb8\x8e?'
tRp317
sa(dp318
g8
g260
sg12
g277
sg14
F0.10000000000000001
sg15
F0.10000000000000001
sg16
g278
sg18
g9
(g10
S'\xb8\x1e\x85\xebQ\xb8\x8e?'
tRp319
sa(dp320
g8
g11
sg12
g9
(g10
S'\xfc\xa9\xf1\xd2Mb`?'
tRp321
sg14
F0.10000000000000001
sg15
F0.10000000000000001
sg16
g17
sg18
g9
(g10
S'{\x14\xaeG\xe1zt?'
tRp322
sa(dp323
g8
g11
sg12
g9
(g10
S'\xfc\xa9\xf1\xd2Mb`?'
tRp324
sg14
F0.10000000000000001
sg15
F0.10000000000000001
sg16
g22
sg18
g9
(g10
S'{\x14\xaeG\xe1zt?'
tRp325
sa(dp326
g8
g11
sg12
g9
(g10
S'\xfc\xa9\xf1\xd2Mb`?'
tRp327
sg14
F0.10000000000000001
sg15
F0.10000000000000001
sg16
g26
sg18
g9
(g10
S'{\x14\xaeG\xe1zt?'
tRp328
sa(dp329
g8
g11
sg12
g9
(g10
S'\xfc\xa9\xf1\xd2Mb`?'
tRp330
sg14
F0.10000000000000001
sg15
F0.10000000000000001
sg16
g30
sg18
g9
(g10
S'{\x14\xaeG\xe1zt?'
tRp331
sa(dp332
g8
g11
sg12
g9
(g10
S'\xfc\xa9\xf1\xd2Mb`?'
tRp333
sg14
F0.10000000000000001
sg15
F0.10000000000000001
sg16
g34
sg18
g9
(g10
S'{\x14\xaeG\xe1zt?'
tRp334
sa(dp335
g8
g11
sg12
g321
sg14
F0.10000000000000001
sg15
F0.10000000000000001
sg16
g17
sg18
g9
(g10
S'\xb8\x1e\x85\xebQ\xb8~?'
tRp336
sa(dp337
g8
g11
sg12
g324
sg14
F0.10000000000000001
sg15
F0.10000000000000001
sg16
g22
sg18
g9
(g10
S'\xb8\x1e\x85\xebQ\xb8~?'
tRp338
sa(dp339
g8
g11
sg12
g327
sg14
F0.10000000000000001
sg15
F0.10000000000000001
sg16
g26
sg18
g9
(g10
S'\xb8\x1e\x85\xebQ\xb8~?'
tRp340
sa(dp341
g8
g11
sg12
g330
sg14
F0.10000000000000001
sg15
F0.10000000000000001
sg16
g30
sg18
g9
(g10
S'\xb8\x1e\x85\xebQ\xb8~?'
tRp342
sa(dp343
g8
g11
sg12
g333
sg14
F0.10000000000000001
sg15
F0.10000000000000001
sg16
g34
sg18
g9
(g10
S'\xb8\x1e\x85\xebQ\xb8~?'
tRp344
sa(dp345
g8
g11
sg12
g321
sg14
F0.10000000000000001
sg15
F0.10000000000000001
sg16
g17
sg18
g9
(g10
S'z\x14\xaeG\xe1z\x84?'
tRp346
sa(dp347
g8
g11
sg12
g324
sg14
F0.10000000000000001
sg15
F0.10000000000000001
sg16
g22
sg18
g9
(g10
S'z\x14\xaeG\xe1z\x84?'
tRp348
sa(dp349
g8
g11
sg12
g327
sg14
F0.10000000000000001
sg15
F0.10000000000000001
sg16
g26
sg18
g9
(g10
S'z\x14\xaeG\xe1z\x84?'
tRp350
sa(dp351
g8
g11
sg12
g330
sg14
F0.10000000000000001
sg15
F0.10000000000000001
sg16
g30
sg18
g9
(g10
S'z\x14\xaeG\xe1z\x84?'
tRp352
sa(dp353
g8
g11
sg12
g333
sg14
F0.10000000000000001
sg15
F0.10000000000000001
sg16
g34
sg18
g9
(g10
S'z\x14\xaeG\xe1z\x84?'
tRp354
sa(dp355
g8
g11
sg12
g321
sg14
F0.10000000000000001
sg15
F0.10000000000000001
sg16
g17
sg18
g9
(g10
S'\x99\x99\x99\x99\x99\x99\x89?'
tRp356
sa(dp357
g8
g11
sg12
g324
sg14
F0.10000000000000001
sg15
F0.10000000000000001
sg16
g22
sg18
g9
(g10
S'\x99\x99\x99\x99\x99\x99\x89?'
tRp358
sa(dp359
g8
g11
sg12
g327
sg14
F0.10000000000000001
sg15
F0.10000000000000001
sg16
g26
sg18
g9
(g10
S'\x99\x99\x99\x99\x99\x99\x89?'
tRp360
sa(dp361
g8
g11
sg12
g330
sg14
F0.10000000000000001
sg15
F0.10000000000000001
sg16
g30
sg18
g9
(g10
S'\x99\x99\x99\x99\x99\x99\x89?'
tRp362
sa(dp363
g8
g11
sg12
g333
sg14
F0.10000000000000001
sg15
F0.10000000000000001
sg16
g34
sg18
g9
(g10
S'\x99\x99\x99\x99\x99\x99\x89?'
tRp364
sa(dp365
g8
g11
sg12
g321
sg14
F0.10000000000000001
sg15
F0.10000000000000001
sg16
g17
sg18
g9
(g10
S'\xb8\x1e\x85\xebQ\xb8\x8e?'
tRp366
sa(dp367
g8
g11
sg12
g324
sg14
F0.10000000000000001
sg15
F0.10000000000000001
sg16
g22
sg18
g9
(g10
S'\xb8\x1e\x85\xebQ\xb8\x8e?'
tRp368
sa(dp369
g8
g11
sg12
g327
sg14
F0.10000000000000001
sg15
F0.10000000000000001
sg16
g26
sg18
g9
(g10
S'\xb8\x1e\x85\xebQ\xb8\x8e?'
tRp370
sa(dp371
g8
g11
sg12
g330
sg14
F0.10000000000000001
sg15
F0.10000000000000001
sg16
g30
sg18
g9
(g10
S'\xb8\x1e\x85\xebQ\xb8\x8e?'
tRp372
sa(dp373
g8
g11
sg12
g333
sg14
F0.10000000000000001
sg15
F0.10000000000000001
sg16
g34
sg18
g9
(g10
S'\xb8\x1e\x85\xebQ\xb8\x8e?'
tRp374
sa(dp375
g8
g77
sg12
g9
(g10
S'\xfc\xa9\xf1\xd2Mb`?'
tRp376
sg14
F0.10000000000000001
sg15
F0.10000000000000001
sg16
g79
sg18
g9
(g10
S'{\x14\xaeG\xe1zt?'
tRp377
sa(dp378
g8
g77
sg12
g9
(g10
S'\xfc\xa9\xf1\xd2Mb`?'
tRp379
sg14
F0.10000000000000001
sg15
F0.10000000000000001
sg16
g83
sg18
g9
(g10
S'{\x14\xaeG\xe1zt?'
tRp380
sa(dp381
g8
g77
sg12
g9
(g10
S'\xfc\xa9\xf1\xd2Mb`?'
tRp382
sg14
F0.10000000000000001
sg15
F0.10000000000000001
sg16
g87
sg18
g9
(g10
S'{\x14\xaeG\xe1zt?'
tRp383
sa(dp384
g8
g77
sg12
g9
(g10
S'\xfc\xa9\xf1\xd2Mb`?'
tRp385
sg14
F0.10000000000000001
sg15
F0.10000000000000001
sg16
g91
sg18
g9
(g10
S'{\x14\xaeG\xe1zt?'
tRp386
sa(dp387
g8
g77
sg12
g9
(g10
S'\xfc\xa9\xf1\xd2Mb`?'
tRp388
sg14
F0.10000000000000001
sg15
F0.10000000000000001
sg16
g95
sg18
g9
(g10
S'{\x14\xaeG\xe1zt?'
tRp389
sa(dp390
g8
g77
sg12
g376
sg14
F0.10000000000000001
sg15
F0.10000000000000001
sg16
g79
sg18
g9
(g10
S'\xb8\x1e\x85\xebQ\xb8~?'
tRp391
sa(dp392
g8
g77
sg12
g379
sg14
F0.10000000000000001
sg15
F0.10000000000000001
sg16
g83
sg18
g9
(g10
S'\xb8\x1e\x85\xebQ\xb8~?'
tRp393
sa(dp394
g8
g77
sg12
g382
sg14
F0.10000000000000001
sg15
F0.10000000000000001
sg16
g87
sg18
g9
(g10
S'\xb8\x1e\x85\xebQ\xb8~?'
tRp395
sa(dp396
g8
g77
sg12
g385
sg14
F0.10000000000000001
sg15
F0.10000000000000001
sg16
g91
sg18
g9
(g10
S'\xb8\x1e\x85\xebQ\xb8~?'
tRp397
sa(dp398
g8
g77
sg12
g388
sg14
F0.10000000000000001
sg15
F0.10000000000000001
sg16
g95
sg18
g9
(g10
S'\xb8\x1e\x85\xebQ\xb8~?'
tRp399
sa(dp400
g8
g77
sg12
g376
sg14
F0.10000000000000001
sg15
F0.10000000000000001
sg16
g79
sg18
g9
(g10
S'z\x14\xaeG\xe1z\x84?'
tRp401
sa(dp402
g8
g77
sg12
g379
sg14
F0.10000000000000001
sg15
F0.10000000000000001
sg16
g83
sg18
g9
(g10
S'z\x14\xaeG\xe1z\x84?'
tRp403
sa(dp404
g8
g77
sg12
g382
sg14
F0.10000000000000001
sg15
F0.10000000000000001
sg16
g87
sg18
g9
(g10
S'z\x14\xaeG\xe1z\x84?'
tRp405
sa(dp406
g8
g77
sg12
g385
sg14
F0.10000000000000001
sg15
F0.10000000000000001
sg16
g91
sg18
g9
(g10
S'z\x14\xaeG\xe1z\x84?'
tRp407
sa(dp408
g8
g77
sg12
g388
sg14
F0.10000000000000001
sg15
F0.10000000000000001
sg16
g95
sg18
g9
(g10
S'z\x14\xaeG\xe1z\x84?'
tRp409
sa(dp410
g8
g77
sg12
g376
sg14
F0.10000000000000001
sg15
F0.10000000000000001
sg16
g79
sg18
g9
(g10
S'\x99\x99\x99\x99\x99\x99\x89?'
tRp411
sa(dp412
g8
g77
sg12
g379
sg14
F0.10000000000000001
sg15
F0.10000000000000001
sg16
g83
sg18
g9
(g10
S'\x99\x99\x99\x99\x99\x99\x89?'
tRp413
sa(dp414
g8
g77
sg12
g382
sg14
F0.10000000000000001
sg15
F0.10000000000000001
sg16
g87
sg18
g9
(g10
S'\x99\x99\x99\x99\x99\x99\x89?'
tRp415
sa(dp416
g8
g77
sg12
g385
sg14
F0.10000000000000001
sg15
F0.10000000000000001
sg16
g91
sg18
g9
(g10
S'\x99\x99\x99\x99\x99\x99\x89?'
tRp417
sa(dp418
g8
g77
sg12
g388
sg14
F0.10000000000000001
sg15
F0.10000000000000001
sg16
g95
sg18
g9
(g10
S'\x99\x99\x99\x99\x99\x99\x89?'
tRp419
sa(dp420
g8
g77
sg12
g376
sg14
F0.10000000000000001
sg15
F0.10000000000000001
sg16
g79
sg18
g9
(g10
S'\xb8\x1e\x85\xebQ\xb8\x8e?'
tRp421
sa(dp422
g8
g77
sg12
g379
sg14
F0.10000000000000001
sg15
F0.10000000000000001
sg16
g83
sg18
g9
(g10
S'\xb8\x1e\x85\xebQ\xb8\x8e?'
tRp423
sa(dp424
g8
g77
sg12
g382
sg14
F0.10000000000000001
sg15
F0.10000000000000001
sg16
g87
sg18
g9
(g10
S'\xb8\x1e\x85\xebQ\xb8\x8e?'
tRp425
sa(dp426
g8
g77
sg12
g385
sg14
F0.10000000000000001
sg15
F0.10000000000000001
sg16
g91
sg18
g9
(g10
S'\xb8\x1e\x85\xebQ\xb8\x8e?'
tRp427
sa(dp428
g8
g77
sg12
g388
sg14
F0.10000000000000001
sg15
F0.10000000000000001
sg16
g95
sg18
g9
(g10
S'\xb8\x1e\x85\xebQ\xb8\x8e?'
tRp429
sa(dp430
g8
g138
sg12
g9
(g10
S'\xfc\xa9\xf1\xd2Mb`?'
tRp431
sg14
F0.10000000000000001
sg15
F0.10000000000000001
sg16
g140
sg18
g9
(g10
S'{\x14\xaeG\xe1zt?'
tRp432
sa(dp433
g8
g138
sg12
g9
(g10
S'\xfc\xa9\xf1\xd2Mb`?'
tRp434
sg14
F0.10000000000000001
sg15
F0.10000000000000001
sg16
g144
sg18
g9
(g10
S'{\x14\xaeG\xe1zt?'
tRp435
sa(dp436
g8
g138
sg12
g9
(g10
S'\xfc\xa9\xf1\xd2Mb`?'
tRp437
sg14
F0.10000000000000001
sg15
F0.10000000000000001
sg16
g148
sg18
g9
(g10
S'{\x14\xaeG\xe1zt?'
tRp438
sa(dp439
g8
g138
sg12
g9
(g10
S'\xfc\xa9\xf1\xd2Mb`?'
tRp440
sg14
F0.10000000000000001
sg15
F0.10000000000000001
sg16
g152
sg18
g9
(g10
S'{\x14\xaeG\xe1zt?'
tRp441
sa(dp442
g8
g138
sg12
g9
(g10
S'\xfc\xa9\xf1\xd2Mb`?'
tRp443
sg14
F0.10000000000000001
sg15
F0.10000000000000001
sg16
g156
sg18
g9
(g10
S'{\x14\xaeG\xe1zt?'
tRp444
sa(dp445
g8
g138
sg12
g431
sg14
F0.10000000000000001
sg15
F0.10000000000000001
sg16
g140
sg18
g9
(g10
S'\xb8\x1e\x85\xebQ\xb8~?'
tRp446
sa(dp447
g8
g138
sg12
g434
sg14
F0.10000000000000001
sg15
F0.10000000000000001
sg16
g144
sg18
g9
(g10
S'\xb8\x1e\x85\xebQ\xb8~?'
tRp448
sa(dp449
g8
g138
sg12
g437
sg14
F0.10000000000000001
sg15
F0.10000000000000001
sg16
g148
sg18
g9
(g10
S'\xb8\x1e\x85\xebQ\xb8~?'
tRp450
sa(dp451
g8
g138
sg12
g440
sg14
F0.10000000000000001
sg15
F0.10000000000000001
sg16
g152
sg18
g9
(g10
S'\xb8\x1e\x85\xebQ\xb8~?'
tRp452
sa(dp453
g8
g138
sg12
g443
sg14
F0.10000000000000001
sg15
F0.10000000000000001
sg16
g156
sg18
g9
(g10
S'\xb8\x1e\x85\xebQ\xb8~?'
tRp454
sa(dp455
g8
g138
sg12
g431
sg14
F0.10000000000000001
sg15
F0.10000000000000001
sg16
g140
sg18
g9
(g10
S'z\x14\xaeG\xe1z\x84?'
tRp456
sa(dp457
g8
g138
sg12
g434
sg14
F0.10000000000000001
sg15
F0.10000000000000001
sg16
g144
sg18
g9
(g10
S'z\x14\xaeG\xe1z\x84?'
tRp458
sa(dp459
g8
g138
sg12
g437
sg14
F0.10000000000000001
sg15
F0.10000000000000001
sg16
g148
sg18
g9
(g10
S'z\x14\xaeG\xe1z\x84?'
tRp460
sa(dp461
g8
g138
sg12
g440
sg14
F0.10000000000000001
sg15
F0.10000000000000001
sg16
g152
sg18
g9
(g10
S'z\x14\xaeG\xe1z\x84?'
tRp462
sa(dp463
g8
g138
sg12
g443
sg14
F0.10000000000000001
sg15
F0.10000000000000001
sg16
g156
sg18
g9
(g10
S'z\x14\xaeG\xe1z\x84?'
tRp464
sa(dp465
g8
g138
sg12
g431
sg14
F0.10000000000000001
sg15
F0.10000000000000001
sg16
g140
sg18
g9
(g10
S'\x99\x99\x99\x99\x99\x99\x89?'
tRp466
sa(dp467
g8
g138
sg12
g434
sg14
F0.10000000000000001
sg15
F0.10000000000000001
sg16
g144
sg18
g9
(g10
S'\x99\x99\x99\x99\x99\x99\x89?'
tRp468
sa(dp469
g8
g138
sg12
g437
sg14
F0.10000000000000001
sg15
F0.10000000000000001
sg16
g148
sg18
g9
(g10
S'\x99\x99\x99\x99\x99\x99\x89?'
tRp470
sa(dp471
g8
g138
sg12
g440
sg14
F0.10000000000000001
sg15
F0.10000000000000001
sg16
g152
sg18
g9
(g10
S'\x99\x99\x99\x99\x99\x99\x89?'
tRp472
sa(dp473
g8
g138
sg12
g443
sg14
F0.10000000000000001
sg15
F0.10000000000000001
sg16
g156
sg18
g9
(g10
S'\x99\x99\x99\x99\x99\x99\x89?'
tRp474
sa(dp475
g8
g138
sg12
g431
sg14
F0.10000000000000001
sg15
F0.10000000000000001
sg16
g140
sg18
g9
(g10
S'\xb8\x1e\x85\xebQ\xb8\x8e?'
tRp476
sa(dp477
g8
g138
sg12
g434
sg14
F0.10000000000000001
sg15
F0.10000000000000001
sg16
g144
sg18
g9
(g10
S'\xb8\x1e\x85\xebQ\xb8\x8e?'
tRp478
sa(dp479
g8
g138
sg12
g437
sg14
F0.10000000000000001
sg15
F0.10000000000000001
sg16
g148
sg18
g9
(g10
S'\xb8\x1e\x85\xebQ\xb8\x8e?'
tRp480
sa(dp481
g8
g138
sg12
g440
sg14
F0.10000000000000001
sg15
F0.10000000000000001
sg16
g152
sg18
g9
(g10
S'\xb8\x1e\x85\xebQ\xb8\x8e?'
tRp482
sa(dp483
g8
g138
sg12
g443
sg14
F0.10000000000000001
sg15
F0.10000000000000001
sg16
g156
sg18
g9
(g10
S'\xb8\x1e\x85\xebQ\xb8\x8e?'
tRp484
sa(dp485
g8
g199
sg12
g9
(g10
S'\xfc\xa9\xf1\xd2Mb`?'
tRp486
sg14
F0.10000000000000001
sg15
F0.10000000000000001
sg16
g201
sg18
g9
(g10
S'{\x14\xaeG\xe1zt?'
tRp487
sa(dp488
g8
g199
sg12
g9
(g10
S'\xfc\xa9\xf1\xd2Mb`?'
tRp489
sg14
F0.10000000000000001
sg15
F0.10000000000000001
sg16
g205
sg18
g9
(g10
S'{\x14\xaeG\xe1zt?'
tRp490
sa(dp491
g8
g199
sg12
g9
(g10
S'\xfc\xa9\xf1\xd2Mb`?'
tRp492
sg14
F0.10000000000000001
sg15
F0.10000000000000001
sg16
g209
sg18
g9
(g10
S'{\x14\xaeG\xe1zt?'
tRp493
sa(dp494
g8
g199
sg12
g9
(g10
S'\xfc\xa9\xf1\xd2Mb`?'
tRp495
sg14
F0.10000000000000001
sg15
F0.10000000000000001
sg16
g213
sg18
g9
(g10
S'{\x14\xaeG\xe1zt?'
tRp496
sa(dp497
g8
g199
sg12
g9
(g10
S'\xfc\xa9\xf1\xd2Mb`?'
tRp498
sg14
F0.10000000000000001
sg15
F0.10000000000000001
sg16
g217
sg18
g9
(g10
S'{\x14\xaeG\xe1zt?'
tRp499
sa(dp500
g8
g199
sg12
g486
sg14
F0.10000000000000001
sg15
F0.10000000000000001
sg16
g201
sg18
g9
(g10
S'\xb8\x1e\x85\xebQ\xb8~?'
tRp501
sa(dp502
g8
g199
sg12
g489
sg14
F0.10000000000000001
sg15
F0.10000000000000001
sg16
g205
sg18
g9
(g10
S'\xb8\x1e\x85\xebQ\xb8~?'
tRp503
sa(dp504
g8
g199
sg12
g492
sg14
F0.10000000000000001
sg15
F0.10000000000000001
sg16
g209
sg18
g9
(g10
S'\xb8\x1e\x85\xebQ\xb8~?'
tRp505
sa(dp506
g8
g199
sg12
g495
sg14
F0.10000000000000001
sg15
F0.10000000000000001
sg16
g213
sg18
g9
(g10
S'\xb8\x1e\x85\xebQ\xb8~?'
tRp507
sa(dp508
g8
g199
sg12
g498
sg14
F0.10000000000000001
sg15
F0.10000000000000001
sg16
g217
sg18
g9
(g10
S'\xb8\x1e\x85\xebQ\xb8~?'
tRp509
sa(dp510
g8
g199
sg12
g486
sg14
F0.10000000000000001
sg15
F0.10000000000000001
sg16
g201
sg18
g9
(g10
S'z\x14\xaeG\xe1z\x84?'
tRp511
sa(dp512
g8
g199
sg12
g489
sg14
F0.10000000000000001
sg15
F0.10000000000000001
sg16
g205
sg18
g9
(g10
S'z\x14\xaeG\xe1z\x84?'
tRp513
sa(dp514
g8
g199
sg12
g492
sg14
F0.10000000000000001
sg15
F0.10000000000000001
sg16
g209
sg18
g9
(g10
S'z\x14\xaeG\xe1z\x84?'
tRp515
sa(dp516
g8
g199
sg12
g495
sg14
F0.10000000000000001
sg15
F0.10000000000000001
sg16
g213
sg18
g9
(g10
S'z\x14\xaeG\xe1z\x84?'
tRp517
sa(dp518
g8
g199
sg12
g498
sg14
F0.10000000000000001
sg15
F0.10000000000000001
sg16
g217
sg18
g9
(g10
S'z\x14\xaeG\xe1z\x84?'
tRp519
sa(dp520
g8
g199
sg12
g486
sg14
F0.10000000000000001
sg15
F0.10000000000000001
sg16
g201
sg18
g9
(g10
S'\x99\x99\x99\x99\x99\x99\x89?'
tRp521
sa(dp522
g8
g199
sg12
g489
sg14
F0.10000000000000001
sg15
F0.10000000000000001
sg16
g205
sg18
g9
(g10
S'\x99\x99\x99\x99\x99\x99\x89?'
tRp523
sa(dp524
g8
g199
sg12
g492
sg14
F0.10000000000000001
sg15
F0.10000000000000001
sg16
g209
sg18
g9
(g10
S'\x99\x99\x99\x99\x99\x99\x89?'
tRp525
sa(dp526
g8
g199
sg12
g495
sg14
F0.10000000000000001
sg15
F0.10000000000000001
sg16
g213
sg18
g9
(g10
S'\x99\x99\x99\x99\x99\x99\x89?'
tRp527
sa(dp528
g8
g199
sg12
g498
sg14
F0.10000000000000001
sg15
F0.10000000000000001
sg16
g217
sg18
g9
(g10
S'\x99\x99\x99\x99\x99\x99\x89?'
tRp529
sa(dp530
g8
g199
sg12
g486
sg14
F0.10000000000000001
sg15
F0.10000000000000001
sg16
g201
sg18
g9
(g10
S'\xb8\x1e\x85\xebQ\xb8\x8e?'
tRp531
sa(dp532
g8
g199
sg12
g489
sg14
F0.10000000000000001
sg15
F0.10000000000000001
sg16
g205
sg18
g9
(g10
S'\xb8\x1e\x85\xebQ\xb8\x8e?'
tRp533
sa(dp534
g8
g199
sg12
g492
sg14
F0.10000000000000001
sg15
F0.10000000000000001
sg16
g209
sg18
g9
(g10
S'\xb8\x1e\x85\xebQ\xb8\x8e?'
tRp535
sa(dp536
g8
g199
sg12
g495
sg14
F0.10000000000000001
sg15
F0.10000000000000001
sg16
g213
sg18
g9
(g10
S'\xb8\x1e\x85\xebQ\xb8\x8e?'
tRp537
sa(dp538
g8
g199
sg12
g498
sg14
F0.10000000000000001
sg15
F0.10000000000000001
sg16
g217
sg18
g9
(g10
S'\xb8\x1e\x85\xebQ\xb8\x8e?'
tRp539
sa(dp540
g8
g260
sg12
g9
(g10
S'\xfc\xa9\xf1\xd2Mb`?'
tRp541
sg14
F0.10000000000000001
sg15
F0.10000000000000001
sg16
g262
sg18
g9
(g10
S'{\x14\xaeG\xe1zt?'
tRp542
sa(dp543
g8
g260
sg12
g9
(g10
S'\xfc\xa9\xf1\xd2Mb`?'
tRp544
sg14
F0.10000000000000001
sg15
F0.10000000000000001
sg16
g266
sg18
g9
(g10
S'{\x14\xaeG\xe1zt?'
tRp545
sa(dp546
g8
g260
sg12
g9
(g10
S'\xfc\xa9\xf1\xd2Mb`?'
tRp547
sg14
F0.10000000000000001
sg15
F0.10000000000000001
sg16
g270
sg18
g9
(g10
S'{\x14\xaeG\xe1zt?'
tRp548
sa(dp549
g8
g260
sg12
g9
(g10
S'\xfc\xa9\xf1\xd2Mb`?'
tRp550
sg14
F0.10000000000000001
sg15
F0.10000000000000001
sg16
g274
sg18
g9
(g10
S'{\x14\xaeG\xe1zt?'
tRp551
sa(dp552
g8
g260
sg12
g9
(g10
S'\xfc\xa9\xf1\xd2Mb`?'
tRp553
sg14
F0.10000000000000001
sg15
F0.10000000000000001
sg16
g278
sg18
g9
(g10
S'{\x14\xaeG\xe1zt?'
tRp554
sa(dp555
g8
g260
sg12
g541
sg14
F0.10000000000000001
sg15
F0.10000000000000001
sg16
g262
sg18
g9
(g10
S'\xb8\x1e\x85\xebQ\xb8~?'
tRp556
sa(dp557
g8
g260
sg12
g544
sg14
F0.10000000000000001
sg15
F0.10000000000000001
sg16
g266
sg18
g9
(g10
S'\xb8\x1e\x85\xebQ\xb8~?'
tRp558
sa(dp559
g8
g260
sg12
g547
sg14
F0.10000000000000001
sg15
F0.10000000000000001
sg16
g270
sg18
g9
(g10
S'\xb8\x1e\x85\xebQ\xb8~?'
tRp560
sa(dp561
g8
g260
sg12
g550
sg14
F0.10000000000000001
sg15
F0.10000000000000001
sg16
g274
sg18
g9
(g10
S'\xb8\x1e\x85\xebQ\xb8~?'
tRp562
sa(dp563
g8
g260
sg12
g553
sg14
F0.10000000000000001
sg15
F0.10000000000000001
sg16
g278
sg18
g9
(g10
S'\xb8\x1e\x85\xebQ\xb8~?'
tRp564
sa(dp565
g8
g260
sg12
g541
sg14
F0.10000000000000001
sg15
F0.10000000000000001
sg16
g262
sg18
g9
(g10
S'z\x14\xaeG\xe1z\x84?'
tRp566
sa(dp567
g8
g260
sg12
g544
sg14
F0.10000000000000001
sg15
F0.10000000000000001
sg16
g266
sg18
g9
(g10
S'z\x14\xaeG\xe1z\x84?'
tRp568
sa(dp569
g8
g260
sg12
g547
sg14
F0.10000000000000001
sg15
F0.10000000000000001
sg16
g270
sg18
g9
(g10
S'z\x14\xaeG\xe1z\x84?'
tRp570
sa(dp571
g8
g260
sg12
g550
sg14
F0.10000000000000001
sg15
F0.10000000000000001
sg16
g274
sg18
g9
(g10
S'z\x14\xaeG\xe1z\x84?'
tRp572
sa(dp573
g8
g260
sg12
g553
sg14
F0.10000000000000001
sg15
F0.10000000000000001
sg16
g278
sg18
g9
(g10
S'z\x14\xaeG\xe1z\x84?'
tRp574
sa(dp575
g8
g260
sg12
g541
sg14
F0.10000000000000001
sg15
F0.10000000000000001
sg16
g262
sg18
g9
(g10
S'\x99\x99\x99\x99\x99\x99\x89?'
tRp576
sa(dp577
g8
g260
sg12
g544
sg14
F0.10000000000000001
sg15
F0.10000000000000001
sg16
g266
sg18
g9
(g10
S'\x99\x99\x99\x99\x99\x99\x89?'
tRp578
sa(dp579
g8
g260
sg12
g547
sg14
F0.10000000000000001
sg15
F0.10000000000000001
sg16
g270
sg18
g9
(g10
S'\x99\x99\x99\x99\x99\x99\x89?'
tRp580
sa(dp581
g8
g260
sg12
g550
sg14
F0.10000000000000001
sg15
F0.10000000000000001
sg16
g274
sg18
g9
(g10
S'\x99\x99\x99\x99\x99\x99\x89?'
tRp582
sa(dp583
g8
g260
sg12
g553
sg14
F0.10000000000000001
sg15
F0.10000000000000001
sg16
g278
sg18
g9
(g10
S'\x99\x99\x99\x99\x99\x99\x89?'
tRp584
sa(dp585
g8
g260
sg12
g541
sg14
F0.10000000000000001
sg15
F0.10000000000000001
sg16
g262
sg18
g9
(g10
S'\xb8\x1e\x85\xebQ\xb8\x8e?'
tRp586
sa(dp587
g8
g260
sg12
g544
sg14
F0.10000000000000001
sg15
F0.10000000000000001
sg16
g266
sg18
g9
(g10
S'\xb8\x1e\x85\xebQ\xb8\x8e?'
tRp588
sa(dp589
g8
g260
sg12
g547
sg14
F0.10000000000000001
sg15
F0.10000000000000001
sg16
g270
sg18
g9
(g10
S'\xb8\x1e\x85\xebQ\xb8\x8e?'
tRp590
sa(dp591
g8
g260
sg12
g550
sg14
F0.10000000000000001
sg15
F0.10000000000000001
sg16
g274
sg18
g9
(g10
S'\xb8\x1e\x85\xebQ\xb8\x8e?'
tRp592
sa(dp593
g8
g260
sg12
g553
sg14
F0.10000000000000001
sg15
F0.10000000000000001
sg16
g278
sg18
g9
(g10
S'\xb8\x1e\x85\xebQ\xb8\x8e?'
tRp594
sa(dp595
g8
g11
sg12
g9
(g10
S'\xfa~j\xbct\x93h?'
tRp596
sg14
F0.10000000000000001
sg15
F0.10000000000000001
sg16
g17
sg18
g9
(g10
S'{\x14\xaeG\xe1zt?'
tRp597
sa(dp598
g8
g11
sg12
g9
(g10
S'\xfa~j\xbct\x93h?'
tRp599
sg14
F0.10000000000000001
sg15
F0.10000000000000001
sg16
g22
sg18
g9
(g10
S'{\x14\xaeG\xe1zt?'
tRp600
sa(dp601
g8
g11
sg12
g9
(g10
S'\xfa~j\xbct\x93h?'
tRp602
sg14
F0.10000000000000001
sg15
F0.10000000000000001
sg16
g26
sg18
g9
(g10
S'{\x14\xaeG\xe1zt?'
tRp603
sa(dp604
g8
g11
sg12
g9
(g10
S'\xfa~j\xbct\x93h?'
tRp605
sg14
F0.10000000000000001
sg15
F0.10000000000000001
sg16
g30
sg18
g9
(g10
S'{\x14\xaeG\xe1zt?'
tRp606
sa(dp607
g8
g11
sg12
g9
(g10
S'\xfa~j\xbct\x93h?'
tRp608
sg14
F0.10000000000000001
sg15
F0.10000000000000001
sg16
g34
sg18
g9
(g10
S'{\x14\xaeG\xe1zt?'
tRp609
sa(dp610
g8
g11
sg12
g596
sg14
F0.10000000000000001
sg15
F0.10000000000000001
sg16
g17
sg18
g9
(g10
S'\xb8\x1e\x85\xebQ\xb8~?'
tRp611
sa(dp612
g8
g11
sg12
g599
sg14
F0.10000000000000001
sg15
F0.10000000000000001
sg16
g22
sg18
g9
(g10
S'\xb8\x1e\x85\xebQ\xb8~?'
tRp613
sa(dp614
g8
g11
sg12
g602
sg14
F0.10000000000000001
sg15
F0.10000000000000001
sg16
g26
sg18
g9
(g10
S'\xb8\x1e\x85\xebQ\xb8~?'
tRp615
sa(dp616
g8
g11
sg12
g605
sg14
F0.10000000000000001
sg15
F0.10000000000000001
sg16
g30
sg18
g9
(g10
S'\xb8\x1e\x85\xebQ\xb8~?'
tRp617
sa(dp618
g8
g11
sg12
g608
sg14
F0.10000000000000001
sg15
F0.10000000000000001
sg16
g34
sg18
g9
(g10
S'\xb8\x1e\x85\xebQ\xb8~?'
tRp619
sa(dp620
g8
g11
sg12
g596
sg14
F0.10000000000000001
sg15
F0.10000000000000001
sg16
g17
sg18
g9
(g10
S'z\x14\xaeG\xe1z\x84?'
tRp621
sa(dp622
g8
g11
sg12
g599
sg14
F0.10000000000000001
sg15
F0.10000000000000001
sg16
g22
sg18
g9
(g10
S'z\x14\xaeG\xe1z\x84?'
tRp623
sa(dp624
g8
g11
sg12
g602
sg14
F0.10000000000000001
sg15
F0.10000000000000001
sg16
g26
sg18
g9
(g10
S'z\x14\xaeG\xe1z\x84?'
tRp625
sa(dp626
g8
g11
sg12
g605
sg14
F0.10000000000000001
sg15
F0.10000000000000001
sg16
g30
sg18
g9
(g10
S'z\x14\xaeG\xe1z\x84?'
tRp627
sa(dp628
g8
g11
sg12
g608
sg14
F0.10000000000000001
sg15
F0.10000000000000001
sg16
g34
sg18
g9
(g10
S'z\x14\xaeG\xe1z\x84?'
tRp629
sa(dp630
g8
g11
sg12
g596
sg14
F0.10000000000000001
sg15
F0.10000000000000001
sg16
g17
sg18
g9
(g10
S'\x99\x99\x99\x99\x99\x99\x89?'
tRp631
sa(dp632
g8
g11
sg12
g599
sg14
F0.10000000000000001
sg15
F0.10000000000000001
sg16
g22
sg18
g9
(g10
S'\x99\x99\x99\x99\x99\x99\x89?'
tRp633
sa(dp634
g8
g11
sg12
g602
sg14
F0.10000000000000001
sg15
F0.10000000000000001
sg16
g26
sg18
g9
(g10
S'\x99\x99\x99\x99\x99\x99\x89?'
tRp635
sa(dp636
g8
g11
sg12
g605
sg14
F0.10000000000000001
sg15
F0.10000000000000001
sg16
g30
sg18
g9
(g10
S'\x99\x99\x99\x99\x99\x99\x89?'
tRp637
sa(dp638
g8
g11
sg12
g608
sg14
F0.10000000000000001
sg15
F0.10000000000000001
sg16
g34
sg18
g9
(g10
S'\x99\x99\x99\x99\x99\x99\x89?'
tRp639
sa(dp640
g8
g11
sg12
g596
sg14
F0.10000000000000001
sg15
F0.10000000000000001
sg16
g17
sg18
g9
(g10
S'\xb8\x1e\x85\xebQ\xb8\x8e?'
tRp641
sa(dp642
g8
g11
sg12
g599
sg14
F0.10000000000000001
sg15
F0.10000000000000001
sg16
g22
sg18
g9
(g10
S'\xb8\x1e\x85\xebQ\xb8\x8e?'
tRp643
sa(dp644
g8
g11
sg12
g602
sg14
F0.10000000000000001
sg15
F0.10000000000000001
sg16
g26
sg18
g9
(g10
S'\xb8\x1e\x85\xebQ\xb8\x8e?'
tRp645
sa(dp646
g8
g11
sg12
g605
sg14
F0.10000000000000001
sg15
F0.10000000000000001
sg16
g30
sg18
g9
(g10
S'\xb8\x1e\x85\xebQ\xb8\x8e?'
tRp647
sa(dp648
g8
g11
sg12
g608
sg14
F0.10000000000000001
sg15
F0.10000000000000001
sg16
g34
sg18
g9
(g10
S'\xb8\x1e\x85\xebQ\xb8\x8e?'
tRp649
sa(dp650
g8
g77
sg12
g9
(g10
S'\xfa~j\xbct\x93h?'
tRp651
sg14
F0.10000000000000001
sg15
F0.10000000000000001
sg16
g79
sg18
g9
(g10
S'{\x14\xaeG\xe1zt?'
tRp652
sa(dp653
g8
g77
sg12
g9
(g10
S'\xfa~j\xbct\x93h?'
tRp654
sg14
F0.10000000000000001
sg15
F0.10000000000000001
sg16
g83
sg18
g9
(g10
S'{\x14\xaeG\xe1zt?'
tRp655
sa(dp656
g8
g77
sg12
g9
(g10
S'\xfa~j\xbct\x93h?'
tRp657
sg14
F0.10000000000000001
sg15
F0.10000000000000001
sg16
g87
sg18
g9
(g10
S'{\x14\xaeG\xe1zt?'
tRp658
sa(dp659
g8
g77
sg12
g9
(g10
S'\xfa~j\xbct\x93h?'
tRp660
sg14
F0.10000000000000001
sg15
F0.10000000000000001
sg16
g91
sg18
g9
(g10
S'{\x14\xaeG\xe1zt?'
tRp661
sa(dp662
g8
g77
sg12
g9
(g10
S'\xfa~j\xbct\x93h?'
tRp663
sg14
F0.10000000000000001
sg15
F0.10000000000000001
sg16
g95
sg18
g9
(g10
S'{\x14\xaeG\xe1zt?'
tRp664
sa(dp665
g8
g77
sg12
g651
sg14
F0.10000000000000001
sg15
F0.10000000000000001
sg16
g79
sg18
g9
(g10
S'\xb8\x1e\x85\xebQ\xb8~?'
tRp666
sa(dp667
g8
g77
sg12
g654
sg14
F0.10000000000000001
sg15
F0.10000000000000001
sg16
g83
sg18
g9
(g10
S'\xb8\x1e\x85\xebQ\xb8~?'
tRp668
sa(dp669
g8
g77
sg12
g657
sg14
F0.10000000000000001
sg15
F0.10000000000000001
sg16
g87
sg18
g9
(g10
S'\xb8\x1e\x85\xebQ\xb8~?'
tRp670
sa(dp671
g8
g77
sg12
g660
sg14
F0.10000000000000001
sg15
F0.10000000000000001
sg16
g91
sg18
g9
(g10
S'\xb8\x1e\x85\xebQ\xb8~?'
tRp672
sa(dp673
g8
g77
sg12
g663
sg14
F0.10000000000000001
sg15
F0.10000000000000001
sg16
g95
sg18
g9
(g10
S'\xb8\x1e\x85\xebQ\xb8~?'
tRp674
sa(dp675
g8
g77
sg12
g651
sg14
F0.10000000000000001
sg15
F0.10000000000000001
sg16
g79
sg18
g9
(g10
S'z\x14\xaeG\xe1z\x84?'
tRp676
sa(dp677
g8
g77
sg12
g654
sg14
F0.10000000000000001
sg15
F0.10000000000000001
sg16
g83
sg18
g9
(g10
S'z\x14\xaeG\xe1z\x84?'
tRp678
sa(dp679
g8
g77
sg12
g657
sg14
F0.10000000000000001
sg15
F0.10000000000000001
sg16
g87
sg18
g9
(g10
S'z\x14\xaeG\xe1z\x84?'
tRp680
sa(dp681
g8
g77
sg12
g660
sg14
F0.10000000000000001
sg15
F0.10000000000000001
sg16
g91
sg18
g9
(g10
S'z\x14\xaeG\xe1z\x84?'
tRp682
sa(dp683
g8
g77
sg12
g663
sg14
F0.10000000000000001
sg15
F0.10000000000000001
sg16
g95
sg18
g9
(g10
S'z\x14\xaeG\xe1z\x84?'
tRp684
sa(dp685
g8
g77
sg12
g651
sg14
F0.10000000000000001
sg15
F0.10000000000000001
sg16
g79
sg18
g9
(g10
S'\x99\x99\x99\x99\x99\x99\x89?'
tRp686
sa(dp687
g8
g77
sg12
g654
sg14
F0.10000000000000001
sg15
F0.10000000000000001
sg16
g83
sg18
g9
(g10
S'\x99\x99\x99\x99\x99\x99\x89?'
tRp688
sa(dp689
g8
g77
sg12
g657
sg14
F0.10000000000000001
sg15
F0.10000000000000001
sg16
g87
sg18
g9
(g10
S'\x99\x99\x99\x99\x99\x99\x89?'
tRp690
sa(dp691
g8
g77
sg12
g660
sg14
F0.10000000000000001
sg15
F0.10000000000000001
sg16
g91
sg18
g9
(g10
S'\x99\x99\x99\x99\x99\x99\x89?'
tRp692
sa(dp693
g8
g77
sg12
g663
sg14
F0.10000000000000001
sg15
F0.10000000000000001
sg16
g95
sg18
g9
(g10
S'\x99\x99\x99\x99\x99\x99\x89?'
tRp694
sa(dp695
g8
g77
sg12
g651
sg14
F0.10000000000000001
sg15
F0.10000000000000001
sg16
g79
sg18
g9
(g10
S'\xb8\x1e\x85\xebQ\xb8\x8e?'
tRp696
sa(dp697
g8
g77
sg12
g654
sg14
F0.10000000000000001
sg15
F0.10000000000000001
sg16
g83
sg18
g9
(g10
S'\xb8\x1e\x85\xebQ\xb8\x8e?'
tRp698
sa(dp699
g8
g77
sg12
g657
sg14
F0.10000000000000001
sg15
F0.10000000000000001
sg16
g87
sg18
g9
(g10
S'\xb8\x1e\x85\xebQ\xb8\x8e?'
tRp700
sa(dp701
g8
g77
sg12
g660
sg14
F0.10000000000000001
sg15
F0.10000000000000001
sg16
g91
sg18
g9
(g10
S'\xb8\x1e\x85\xebQ\xb8\x8e?'
tRp702
sa(dp703
g8
g77
sg12
g663
sg14
F0.10000000000000001
sg15
F0.10000000000000001
sg16
g95
sg18
g9
(g10
S'\xb8\x1e\x85\xebQ\xb8\x8e?'
tRp704
sa(dp705
g8
g138
sg12
g9
(g10
S'\xfa~j\xbct\x93h?'
tRp706
sg14
F0.10000000000000001
sg15
F0.10000000000000001
sg16
g140
sg18
g9
(g10
S'{\x14\xaeG\xe1zt?'
tRp707
sa(dp708
g8
g138
sg12
g9
(g10
S'\xfa~j\xbct\x93h?'
tRp709
sg14
F0.10000000000000001
sg15
F0.10000000000000001
sg16
g144
sg18
g9
(g10
S'{\x14\xaeG\xe1zt?'
tRp710
sa(dp711
g8
g138
sg12
g9
(g10
S'\xfa~j\xbct\x93h?'
tRp712
sg14
F0.10000000000000001
sg15
F0.10000000000000001
sg16
g148
sg18
g9
(g10
S'{\x14\xaeG\xe1zt?'
tRp713
sa(dp714
g8
g138
sg12
g9
(g10
S'\xfa~j\xbct\x93h?'
tRp715
sg14
F0.10000000000000001
sg15
F0.10000000000000001
sg16
g152
sg18
g9
(g10
S'{\x14\xaeG\xe1zt?'
tRp716
sa(dp717
g8
g138
sg12
g9
(g10
S'\xfa~j\xbct\x93h?'
tRp718
sg14
F0.10000000000000001
sg15
F0.10000000000000001
sg16
g156
sg18
g9
(g10
S'{\x14\xaeG\xe1zt?'
tRp719
sa(dp720
g8
g138
sg12
g706
sg14
F0.10000000000000001
sg15
F0.10000000000000001
sg16
g140
sg18
g9
(g10
S'\xb8\x1e\x85\xebQ\xb8~?'
tRp721
sa(dp722
g8
g138
sg12
g709
sg14
F0.10000000000000001
sg15
F0.10000000000000001
sg16
g144
sg18
g9
(g10
S'\xb8\x1e\x85\xebQ\xb8~?'
tRp723
sa(dp724
g8
g138
sg12
g712
sg14
F0.10000000000000001
sg15
F0.10000000000000001
sg16
g148
sg18
g9
(g10
S'\xb8\x1e\x85\xebQ\xb8~?'
tRp725
sa(dp726
g8
g138
sg12
g715
sg14
F0.10000000000000001
sg15
F0.10000000000000001
sg16
g152
sg18
g9
(g10
S'\xb8\x1e\x85\xebQ\xb8~?'
tRp727
sa(dp728
g8
g138
sg12
g718
sg14
F0.10000000000000001
sg15
F0.10000000000000001
sg16
g156
sg18
g9
(g10
S'\xb8\x1e\x85\xebQ\xb8~?'
tRp729
sa(dp730
g8
g138
sg12
g706
sg14
F0.10000000000000001
sg15
F0.10000000000000001
sg16
g140
sg18
g9
(g10
S'z\x14\xaeG\xe1z\x84?'
tRp731
sa(dp732
g8
g138
sg12
g709
sg14
F0.10000000000000001
sg15
F0.10000000000000001
sg16
g144
sg18
g9
(g10
S'z\x14\xaeG\xe1z\x84?'
tRp733
sa(dp734
g8
g138
sg12
g712
sg14
F0.10000000000000001
sg15
F0.10000000000000001
sg16
g148
sg18
g9
(g10
S'z\x14\xaeG\xe1z\x84?'
tRp735
sa(dp736
g8
g138
sg12
g715
sg14
F0.10000000000000001
sg15
F0.10000000000000001
sg16
g152
sg18
g9
(g10
S'z\x14\xaeG\xe1z\x84?'
tRp737
sa(dp738
g8
g138
sg12
g718
sg14
F0.10000000000000001
sg15
F0.10000000000000001
sg16
g156
sg18
g9
(g10
S'z\x14\xaeG\xe1z\x84?'
tRp739
sa(dp740
g8
g138
sg12
g706
sg14
F0.10000000000000001
sg15
F0.10000000000000001
sg16
g140
sg18
g9
(g10
S'\x99\x99\x99\x99\x99\x99\x89?'
tRp741
sa(dp742
g8
g138
sg12
g709
sg14
F0.10000000000000001
sg15
F0.10000000000000001
sg16
g144
sg18
g9
(g10
S'\x99\x99\x99\x99\x99\x99\x89?'
tRp743
sa(dp744
g8
g138
sg12
g712
sg14
F0.10000000000000001
sg15
F0.10000000000000001
sg16
g148
sg18
g9
(g10
S'\x99\x99\x99\x99\x99\x99\x89?'
tRp745
sa(dp746
g8
g138
sg12
g715
sg14
F0.10000000000000001
sg15
F0.10000000000000001
sg16
g152
sg18
g9
(g10
S'\x99\x99\x99\x99\x99\x99\x89?'
tRp747
sa(dp748
g8
g138
sg12
g718
sg14
F0.10000000000000001
sg15
F0.10000000000000001
sg16
g156
sg18
g9
(g10
S'\x99\x99\x99\x99\x99\x99\x89?'
tRp749
sa(dp750
g8
g138
sg12
g706
sg14
F0.10000000000000001
sg15
F0.10000000000000001
sg16
g140
sg18
g9
(g10
S'\xb8\x1e\x85\xebQ\xb8\x8e?'
tRp751
sa(dp752
g8
g138
sg12
g709
sg14
F0.10000000000000001
sg15
F0.10000000000000001
sg16
g144
sg18
g9
(g10
S'\xb8\x1e\x85\xebQ\xb8\x8e?'
tRp753
sa(dp754
g8
g138
sg12
g712
sg14
F0.10000000000000001
sg15
F0.10000000000000001
sg16
g148
sg18
g9
(g10
S'\xb8\x1e\x85\xebQ\xb8\x8e?'
tRp755
sa(dp756
g8
g138
sg12
g715
sg14
F0.10000000000000001
sg15
F0.10000000000000001
sg16
g152
sg18
g9
(g10
S'\xb8\x1e\x85\xebQ\xb8\x8e?'
tRp757
sa(dp758
g8
g138
sg12
g718
sg14
F0.10000000000000001
sg15
F0.10000000000000001
sg16
g156
sg18
g9
(g10
S'\xb8\x1e\x85\xebQ\xb8\x8e?'
tRp759
sa(dp760
g8
g199
sg12
g9
(g10
S'\xfa~j\xbct\x93h?'
tRp761
sg14
F0.10000000000000001
sg15
F0.10000000000000001
sg16
g201
sg18
g9
(g10
S'{\x14\xaeG\xe1zt?'
tRp762
sa(dp763
g8
g199
sg12
g9
(g10
S'\xfa~j\xbct\x93h?'
tRp764
sg14
F0.10000000000000001
sg15
F0.10000000000000001
sg16
g205
sg18
g9
(g10
S'{\x14\xaeG\xe1zt?'
tRp765
sa(dp766
g8
g199
sg12
g9
(g10
S'\xfa~j\xbct\x93h?'
tRp767
sg14
F0.10000000000000001
sg15
F0.10000000000000001
sg16
g209
sg18
g9
(g10
S'{\x14\xaeG\xe1zt?'
tRp768
sa(dp769
g8
g199
sg12
g9
(g10
S'\xfa~j\xbct\x93h?'
tRp770
sg14
F0.10000000000000001
sg15
F0.10000000000000001
sg16
g213
sg18
g9
(g10
S'{\x14\xaeG\xe1zt?'
tRp771
sa(dp772
g8
g199
sg12
g9
(g10
S'\xfa~j\xbct\x93h?'
tRp773
sg14
F0.10000000000000001
sg15
F0.10000000000000001
sg16
g217
sg18
g9
(g10
S'{\x14\xaeG\xe1zt?'
tRp774
sa(dp775
g8
g199
sg12
g761
sg14
F0.10000000000000001
sg15
F0.10000000000000001
sg16
g201
sg18
g9
(g10
S'\xb8\x1e\x85\xebQ\xb8~?'
tRp776
sa(dp777
g8
g199
sg12
g764
sg14
F0.10000000000000001
sg15
F0.10000000000000001
sg16
g205
sg18
g9
(g10
S'\xb8\x1e\x85\xebQ\xb8~?'
tRp778
sa(dp779
g8
g199
sg12
g767
sg14
F0.10000000000000001
sg15
F0.10000000000000001
sg16
g209
sg18
g9
(g10
S'\xb8\x1e\x85\xebQ\xb8~?'
tRp780
sa(dp781
g8
g199
sg12
g770
sg14
F0.10000000000000001
sg15
F0.10000000000000001
sg16
g213
sg18
g9
(g10
S'\xb8\x1e\x85\xebQ\xb8~?'
tRp782
sa(dp783
g8
g199
sg12
g773
sg14
F0.10000000000000001
sg15
F0.10000000000000001
sg16
g217
sg18
g9
(g10
S'\xb8\x1e\x85\xebQ\xb8~?'
tRp784
sa(dp785
g8
g199
sg12
g761
sg14
F0.10000000000000001
sg15
F0.10000000000000001
sg16
g201
sg18
g9
(g10
S'z\x14\xaeG\xe1z\x84?'
tRp786
sa(dp787
g8
g199
sg12
g764
sg14
F0.10000000000000001
sg15
F0.10000000000000001
sg16
g205
sg18
g9
(g10
S'z\x14\xaeG\xe1z\x84?'
tRp788
sa(dp789
g8
g199
sg12
g767
sg14
F0.10000000000000001
sg15
F0.10000000000000001
sg16
g209
sg18
g9
(g10
S'z\x14\xaeG\xe1z\x84?'
tRp790
sa(dp791
g8
g199
sg12
g770
sg14
F0.10000000000000001
sg15
F0.10000000000000001
sg16
g213
sg18
g9
(g10
S'z\x14\xaeG\xe1z\x84?'
tRp792
sa(dp793
g8
g199
sg12
g773
sg14
F0.10000000000000001
sg15
F0.10000000000000001
sg16
g217
sg18
g9
(g10
S'z\x14\xaeG\xe1z\x84?'
tRp794
sa(dp795
g8
g199
sg12
g761
sg14
F0.10000000000000001
sg15
F0.10000000000000001
sg16
g201
sg18
g9
(g10
S'\x99\x99\x99\x99\x99\x99\x89?'
tRp796
sa(dp797
g8
g199
sg12
g764
sg14
F0.10000000000000001
sg15
F0.10000000000000001
sg16
g205
sg18
g9
(g10
S'\x99\x99\x99\x99\x99\x99\x89?'
tRp798
sa(dp799
g8
g199
sg12
g767
sg14
F0.10000000000000001
sg15
F0.10000000000000001
sg16
g209
sg18
g9
(g10
S'\x99\x99\x99\x99\x99\x99\x89?'
tRp800
sa(dp801
g8
g199
sg12
g770
sg14
F0.10000000000000001
sg15
F0.10000000000000001
sg16
g213
sg18
g9
(g10
S'\x99\x99\x99\x99\x99\x99\x89?'
tRp802
sa(dp803
g8
g199
sg12
g773
sg14
F0.10000000000000001
sg15
F0.10000000000000001
sg16
g217
sg18
g9
(g10
S'\x99\x99\x99\x99\x99\x99\x89?'
tRp804
sa(dp805
g8
g199
sg12
g761
sg14
F0.10000000000000001
sg15
F0.10000000000000001
sg16
g201
sg18
g9
(g10
S'\xb8\x1e\x85\xebQ\xb8\x8e?'
tRp806
sa(dp807
g8
g199
sg12
g764
sg14
F0.10000000000000001
sg15
F0.10000000000000001
sg16
g205
sg18
g9
(g10
S'\xb8\x1e\x85\xebQ\xb8\x8e?'
tRp808
sa(dp809
g8
g199
sg12
g767
sg14
F0.10000000000000001
sg15
F0.10000000000000001
sg16
g209
sg18
g9
(g10
S'\xb8\x1e\x85\xebQ\xb8\x8e?'
tRp810
sa(dp811
g8
g199
sg12
g770
sg14
F0.10000000000000001
sg15
F0.10000000000000001
sg16
g213
sg18
g9
(g10
S'\xb8\x1e\x85\xebQ\xb8\x8e?'
tRp812
sa(dp813
g8
g199
sg12
g773
sg14
F0.10000000000000001
sg15
F0.10000000000000001
sg16
g217
sg18
g9
(g10
S'\xb8\x1e\x85\xebQ\xb8\x8e?'
tRp814
sa(dp815
g8
g260
sg12
g9
(g10
S'\xfa~j\xbct\x93h?'
tRp816
sg14
F0.10000000000000001
sg15
F0.10000000000000001
sg16
g262
sg18
g9
(g10
S'{\x14\xaeG\xe1zt?'
tRp817
sa(dp818
g8
g260
sg12
g9
(g10
S'\xfa~j\xbct\x93h?'
tRp819
sg14
F0.10000000000000001
sg15
F0.10000000000000001
sg16
g266
sg18
g9
(g10
S'{\x14\xaeG\xe1zt?'
tRp820
sa(dp821
g8
g260
sg12
g9
(g10
S'\xfa~j\xbct\x93h?'
tRp822
sg14
F0.10000000000000001
sg15
F0.10000000000000001
sg16
g270
sg18
g9
(g10
S'{\x14\xaeG\xe1zt?'
tRp823
sa(dp824
g8
g260
sg12
g9
(g10
S'\xfa~j\xbct\x93h?'
tRp825
sg14
F0.10000000000000001
sg15
F0.10000000000000001
sg16
g274
sg18
g9
(g10
S'{\x14\xaeG\xe1zt?'
tRp826
sa(dp827
g8
g260
sg12
g9
(g10
S'\xfa~j\xbct\x93h?'
tRp828
sg14
F0.10000000000000001
sg15
F0.10000000000000001
sg16
g278
sg18
g9
(g10
S'{\x14\xaeG\xe1zt?'
tRp829
sa(dp830
g8
g260
sg12
g816
sg14
F0.10000000000000001
sg15
F0.10000000000000001
sg16
g262
sg18
g9
(g10
S'\xb8\x1e\x85\xebQ\xb8~?'
tRp831
sa(dp832
g8
g260
sg12
g819
sg14
F0.10000000000000001
sg15
F0.10000000000000001
sg16
g266
sg18
g9
(g10
S'\xb8\x1e\x85\xebQ\xb8~?'
tRp833
sa(dp834
g8
g260
sg12
g822
sg14
F0.10000000000000001
sg15
F0.10000000000000001
sg16
g270
sg18
g9
(g10
S'\xb8\x1e\x85\xebQ\xb8~?'
tRp835
sa(dp836
g8
g260
sg12
g825
sg14
F0.10000000000000001
sg15
F0.10000000000000001
sg16
g274
sg18
g9
(g10
S'\xb8\x1e\x85\xebQ\xb8~?'
tRp837
sa(dp838
g8
g260
sg12
g828
sg14
F0.10000000000000001
sg15
F0.10000000000000001
sg16
g278
sg18
g9
(g10
S'\xb8\x1e\x85\xebQ\xb8~?'
tRp839
sa(dp840
g8
g260
sg12
g816
sg14
F0.10000000000000001
sg15
F0.10000000000000001
sg16
g262
sg18
g9
(g10
S'z\x14\xaeG\xe1z\x84?'
tRp841
sa(dp842
g8
g260
sg12
g819
sg14
F0.10000000000000001
sg15
F0.10000000000000001
sg16
g266
sg18
g9
(g10
S'z\x14\xaeG\xe1z\x84?'
tRp843
sa(dp844
g8
g260
sg12
g822
sg14
F0.10000000000000001
sg15
F0.10000000000000001
sg16
g270
sg18
g9
(g10
S'z\x14\xaeG\xe1z\x84?'
tRp845
sa(dp846
g8
g260
sg12
g825
sg14
F0.10000000000000001
sg15
F0.10000000000000001
sg16
g274
sg18
g9
(g10
S'z\x14\xaeG\xe1z\x84?'
tRp847
sa(dp848
g8
g260
sg12
g828
sg14
F0.10000000000000001
sg15
F0.10000000000000001
sg16
g278
sg18
g9
(g10
S'z\x14\xaeG\xe1z\x84?'
tRp849
sa(dp850
g8
g260
sg12
g816
sg14
F0.10000000000000001
sg15
F0.10000000000000001
sg16
g262
sg18
g9
(g10
S'\x99\x99\x99\x99\x99\x99\x89?'
tRp851
sa(dp852
g8
g260
sg12
g819
sg14
F0.10000000000000001
sg15
F0.10000000000000001
sg16
g266
sg18
g9
(g10
S'\x99\x99\x99\x99\x99\x99\x89?'
tRp853
sa(dp854
g8
g260
sg12
g822
sg14
F0.10000000000000001
sg15
F0.10000000000000001
sg16
g270
sg18
g9
(g10
S'\x99\x99\x99\x99\x99\x99\x89?'
tRp855
sa(dp856
g8
g260
sg12
g825
sg14
F0.10000000000000001
sg15
F0.10000000000000001
sg16
g274
sg18
g9
(g10
S'\x99\x99\x99\x99\x99\x99\x89?'
tRp857
sa(dp858
g8
g260
sg12
g828
sg14
F0.10000000000000001
sg15
F0.10000000000000001
sg16
g278
sg18
g9
(g10
S'\x99\x99\x99\x99\x99\x99\x89?'
tRp859
sa(dp860
g8
g260
sg12
g816
sg14
F0.10000000000000001
sg15
F0.10000000000000001
sg16
g262
sg18
g9
(g10
S'\xb8\x1e\x85\xebQ\xb8\x8e?'
tRp861
sa(dp862
g8
g260
sg12
g819
sg14
F0.10000000000000001
sg15
F0.10000000000000001
sg16
g266
sg18
g9
(g10
S'\xb8\x1e\x85\xebQ\xb8\x8e?'
tRp863
sa(dp864
g8
g260
sg12
g822
sg14
F0.10000000000000001
sg15
F0.10000000000000001
sg16
g270
sg18
g9
(g10
S'\xb8\x1e\x85\xebQ\xb8\x8e?'
tRp865
sa(dp866
g8
g260
sg12
g825
sg14
F0.10000000000000001
sg15
F0.10000000000000001
sg16
g274
sg18
g9
(g10
S'\xb8\x1e\x85\xebQ\xb8\x8e?'
tRp867
sa(dp868
g8
g260
sg12
g828
sg14
F0.10000000000000001
sg15
F0.10000000000000001
sg16
g278
sg18
g9
(g10
S'\xb8\x1e\x85\xebQ\xb8\x8e?'
tRp869
sa(dp870
g8
g11
sg12
g9
(g10
S'\xfc\xa9\xf1\xd2Mbp?'
tRp871
sg14
F0.10000000000000001
sg15
F0.10000000000000001
sg16
g17
sg18
g9
(g10
S'{\x14\xaeG\xe1zt?'
tRp872
sa(dp873
g8
g11
sg12
g9
(g10
S'\xfc\xa9\xf1\xd2Mbp?'
tRp874
sg14
F0.10000000000000001
sg15
F0.10000000000000001
sg16
g22
sg18
g9
(g10
S'{\x14\xaeG\xe1zt?'
tRp875
sa(dp876
g8
g11
sg12
g9
(g10
S'\xfc\xa9\xf1\xd2Mbp?'
tRp877
sg14
F0.10000000000000001
sg15
F0.10000000000000001
sg16
g26
sg18
g9
(g10
S'{\x14\xaeG\xe1zt?'
tRp878
sa(dp879
g8
g11
sg12
g9
(g10
S'\xfc\xa9\xf1\xd2Mbp?'
tRp880
sg14
F0.10000000000000001
sg15
F0.10000000000000001
sg16
g30
sg18
g9
(g10
S'{\x14\xaeG\xe1zt?'
tRp881
sa(dp882
g8
g11
sg12
g9
(g10
S'\xfc\xa9\xf1\xd2Mbp?'
tRp883
sg14
F0.10000000000000001
sg15
F0.10000000000000001
sg16
g34
sg18
g9
(g10
S'{\x14\xaeG\xe1zt?'
tRp884
sa(dp885
g8
g11
sg12
g871
sg14
F0.10000000000000001
sg15
F0.10000000000000001
sg16
g17
sg18
g9
(g10
S'\xb8\x1e\x85\xebQ\xb8~?'
tRp886
sa(dp887
g8
g11
sg12
g874
sg14
F0.10000000000000001
sg15
F0.10000000000000001
sg16
g22
sg18
g9
(g10
S'\xb8\x1e\x85\xebQ\xb8~?'
tRp888
sa(dp889
g8
g11
sg12
g877
sg14
F0.10000000000000001
sg15
F0.10000000000000001
sg16
g26
sg18
g9
(g10
S'\xb8\x1e\x85\xebQ\xb8~?'
tRp890
sa(dp891
g8
g11
sg12
g880
sg14
F0.10000000000000001
sg15
F0.10000000000000001
sg16
g30
sg18
g9
(g10
S'\xb8\x1e\x85\xebQ\xb8~?'
tRp892
sa(dp893
g8
g11
sg12
g883
sg14
F0.10000000000000001
sg15
F0.10000000000000001
sg16
g34
sg18
g9
(g10
S'\xb8\x1e\x85\xebQ\xb8~?'
tRp894
sa(dp895
g8
g11
sg12
g871
sg14
F0.10000000000000001
sg15
F0.10000000000000001
sg16
g17
sg18
g9
(g10
S'z\x14\xaeG\xe1z\x84?'
tRp896
sa(dp897
g8
g11
sg12
g874
sg14
F0.10000000000000001
sg15
F0.10000000000000001
sg16
g22
sg18
g9
(g10
S'z\x14\xaeG\xe1z\x84?'
tRp898
sa(dp899
g8
g11
sg12
g877
sg14
F0.10000000000000001
sg15
F0.10000000000000001
sg16
g26
sg18
g9
(g10
S'z\x14\xaeG\xe1z\x84?'
tRp900
sa(dp901
g8
g11
sg12
g880
sg14
F0.10000000000000001
sg15
F0.10000000000000001
sg16
g30
sg18
g9
(g10
S'z\x14\xaeG\xe1z\x84?'
tRp902
sa(dp903
g8
g11
sg12
g883
sg14
F0.10000000000000001
sg15
F0.10000000000000001
sg16
g34
sg18
g9
(g10
S'z\x14\xaeG\xe1z\x84?'
tRp904
sa(dp905
g8
g11
sg12
g871
sg14
F0.10000000000000001
sg15
F0.10000000000000001
sg16
g17
sg18
g9
(g10
S'\x99\x99\x99\x99\x99\x99\x89?'
tRp906
sa(dp907
g8
g11
sg12
g874
sg14
F0.10000000000000001
sg15
F0.10000000000000001
sg16
g22
sg18
g9
(g10
S'\x99\x99\x99\x99\x99\x99\x89?'
tRp908
sa(dp909
g8
g11
sg12
g877
sg14
F0.10000000000000001
sg15
F0.10000000000000001
sg16
g26
sg18
g9
(g10
S'\x99\x99\x99\x99\x99\x99\x89?'
tRp910
sa(dp911
g8
g11
sg12
g880
sg14
F0.10000000000000001
sg15
F0.10000000000000001
sg16
g30
sg18
g9
(g10
S'\x99\x99\x99\x99\x99\x99\x89?'
tRp912
sa(dp913
g8
g11
sg12
g883
sg14
F0.10000000000000001
sg15
F0.10000000000000001
sg16
g34
sg18
g9
(g10
S'\x99\x99\x99\x99\x99\x99\x89?'
tRp914
sa(dp915
g8
g11
sg12
g871
sg14
F0.10000000000000001
sg15
F0.10000000000000001
sg16
g17
sg18
g9
(g10
S'\xb8\x1e\x85\xebQ\xb8\x8e?'
tRp916
sa(dp917
g8
g11
sg12
g874
sg14
F0.10000000000000001
sg15
F0.10000000000000001
sg16
g22
sg18
g9
(g10
S'\xb8\x1e\x85\xebQ\xb8\x8e?'
tRp918
sa(dp919
g8
g11
sg12
g877
sg14
F0.10000000000000001
sg15
F0.10000000000000001
sg16
g26
sg18
g9
(g10
S'\xb8\x1e\x85\xebQ\xb8\x8e?'
tRp920
sa(dp921
g8
g11
sg12
g880
sg14
F0.10000000000000001
sg15
F0.10000000000000001
sg16
g30
sg18
g9
(g10
S'\xb8\x1e\x85\xebQ\xb8\x8e?'
tRp922
sa(dp923
g8
g11
sg12
g883
sg14
F0.10000000000000001
sg15
F0.10000000000000001
sg16
g34
sg18
g9
(g10
S'\xb8\x1e\x85\xebQ\xb8\x8e?'
tRp924
sa(dp925
g8
g77
sg12
g9
(g10
S'\xfc\xa9\xf1\xd2Mbp?'
tRp926
sg14
F0.10000000000000001
sg15
F0.10000000000000001
sg16
g79
sg18
g9
(g10
S'{\x14\xaeG\xe1zt?'
tRp927
sa(dp928
g8
g77
sg12
g9
(g10
S'\xfc\xa9\xf1\xd2Mbp?'
tRp929
sg14
F0.10000000000000001
sg15
F0.10000000000000001
sg16
g83
sg18
g9
(g10
S'{\x14\xaeG\xe1zt?'
tRp930
sa(dp931
g8
g77
sg12
g9
(g10
S'\xfc\xa9\xf1\xd2Mbp?'
tRp932
sg14
F0.10000000000000001
sg15
F0.10000000000000001
sg16
g87
sg18
g9
(g10
S'{\x14\xaeG\xe1zt?'
tRp933
sa(dp934
g8
g77
sg12
g9
(g10
S'\xfc\xa9\xf1\xd2Mbp?'
tRp935
sg14
F0.10000000000000001
sg15
F0.10000000000000001
sg16
g91
sg18
g9
(g10
S'{\x14\xaeG\xe1zt?'
tRp936
sa(dp937
g8
g77
sg12
g9
(g10
S'\xfc\xa9\xf1\xd2Mbp?'
tRp938
sg14
F0.10000000000000001
sg15
F0.10000000000000001
sg16
g95
sg18
g9
(g10
S'{\x14\xaeG\xe1zt?'
tRp939
sa(dp940
g8
g77
sg12
g926
sg14
F0.10000000000000001
sg15
F0.10000000000000001
sg16
g79
sg18
g9
(g10
S'\xb8\x1e\x85\xebQ\xb8~?'
tRp941
sa(dp942
g8
g77
sg12
g929
sg14
F0.10000000000000001
sg15
F0.10000000000000001
sg16
g83
sg18
g9
(g10
S'\xb8\x1e\x85\xebQ\xb8~?'
tRp943
sa(dp944
g8
g77
sg12
g932
sg14
F0.10000000000000001
sg15
F0.10000000000000001
sg16
g87
sg18
g9
(g10
S'\xb8\x1e\x85\xebQ\xb8~?'
tRp945
sa(dp946
g8
g77
sg12
g935
sg14
F0.10000000000000001
sg15
F0.10000000000000001
sg16
g91
sg18
g9
(g10
S'\xb8\x1e\x85\xebQ\xb8~?'
tRp947
sa(dp948
g8
g77
sg12
g938
sg14
F0.10000000000000001
sg15
F0.10000000000000001
sg16
g95
sg18
g9
(g10
S'\xb8\x1e\x85\xebQ\xb8~?'
tRp949
sa(dp950
g8
g77
sg12
g926
sg14
F0.10000000000000001
sg15
F0.10000000000000001
sg16
g79
sg18
g9
(g10
S'z\x14\xaeG\xe1z\x84?'
tRp951
sa(dp952
g8
g77
sg12
g929
sg14
F0.10000000000000001
sg15
F0.10000000000000001
sg16
g83
sg18
g9
(g10
S'z\x14\xaeG\xe1z\x84?'
tRp953
sa(dp954
g8
g77
sg12
g932
sg14
F0.10000000000000001
sg15
F0.10000000000000001
sg16
g87
sg18
g9
(g10
S'z\x14\xaeG\xe1z\x84?'
tRp955
sa(dp956
g8
g77
sg12
g935
sg14
F0.10000000000000001
sg15
F0.10000000000000001
sg16
g91
sg18
g9
(g10
S'z\x14\xaeG\xe1z\x84?'
tRp957
sa(dp958
g8
g77
sg12
g938
sg14
F0.10000000000000001
sg15
F0.10000000000000001
sg16
g95
sg18
g9
(g10
S'z\x14\xaeG\xe1z\x84?'
tRp959
sa(dp960
g8
g77
sg12
g926
sg14
F0.10000000000000001
sg15
F0.10000000000000001
sg16
g79
sg18
g9
(g10
S'\x99\x99\x99\x99\x99\x99\x89?'
tRp961
sa(dp962
g8
g77
sg12
g929
sg14
F0.10000000000000001
sg15
F0.10000000000000001
sg16
g83
sg18
g9
(g10
S'\x99\x99\x99\x99\x99\x99\x89?'
tRp963
sa(dp964
g8
g77
sg12
g932
sg14
F0.10000000000000001
sg15
F0.10000000000000001
sg16
g87
sg18
g9
(g10
S'\x99\x99\x99\x99\x99\x99\x89?'
tRp965
sa(dp966
g8
g77
sg12
g935
sg14
F0.10000000000000001
sg15
F0.10000000000000001
sg16
g91
sg18
g9
(g10
S'\x99\x99\x99\x99\x99\x99\x89?'
tRp967
sa(dp968
g8
g77
sg12
g938
sg14
F0.10000000000000001
sg15
F0.10000000000000001
sg16
g95
sg18
g9
(g10
S'\x99\x99\x99\x99\x99\x99\x89?'
tRp969
sa(dp970
g8
g77
sg12
g926
sg14
F0.10000000000000001
sg15
F0.10000000000000001
sg16
g79
sg18
g9
(g10
S'\xb8\x1e\x85\xebQ\xb8\x8e?'
tRp971
sa(dp972
g8
g77
sg12
g929
sg14
F0.10000000000000001
sg15
F0.10000000000000001
sg16
g83
sg18
g9
(g10
S'\xb8\x1e\x85\xebQ\xb8\x8e?'
tRp973
sa(dp974
g8
g77
sg12
g932
sg14
F0.10000000000000001
sg15
F0.10000000000000001
sg16
g87
sg18
g9
(g10
S'\xb8\x1e\x85\xebQ\xb8\x8e?'
tRp975
sa(dp976
g8
g77
sg12
g935
sg14
F0.10000000000000001
sg15
F0.10000000000000001
sg16
g91
sg18
g9
(g10
S'\xb8\x1e\x85\xebQ\xb8\x8e?'
tRp977
sa(dp978
g8
g77
sg12
g938
sg14
F0.10000000000000001
sg15
F0.10000000000000001
sg16
g95
sg18
g9
(g10
S'\xb8\x1e\x85\xebQ\xb8\x8e?'
tRp979
sa(dp980
g8
g138
sg12
g9
(g10
S'\xfc\xa9\xf1\xd2Mbp?'
tRp981
sg14
F0.10000000000000001
sg15
F0.10000000000000001
sg16
g140
sg18
g9
(g10
S'{\x14\xaeG\xe1zt?'
tRp982
sa(dp983
g8
g138
sg12
g9
(g10
S'\xfc\xa9\xf1\xd2Mbp?'
tRp984
sg14
F0.10000000000000001
sg15
F0.10000000000000001
sg16
g144
sg18
g9
(g10
S'{\x14\xaeG\xe1zt?'
tRp985
sa(dp986
g8
g138
sg12
g9
(g10
S'\xfc\xa9\xf1\xd2Mbp?'
tRp987
sg14
F0.10000000000000001
sg15
F0.10000000000000001
sg16
g148
sg18
g9
(g10
S'{\x14\xaeG\xe1zt?'
tRp988
sa(dp989
g8
g138
sg12
g9
(g10
S'\xfc\xa9\xf1\xd2Mbp?'
tRp990
sg14
F0.10000000000000001
sg15
F0.10000000000000001
sg16
g152
sg18
g9
(g10
S'{\x14\xaeG\xe1zt?'
tRp991
sa(dp992
g8
g138
sg12
g9
(g10
S'\xfc\xa9\xf1\xd2Mbp?'
tRp993
sg14
F0.10000000000000001
sg15
F0.10000000000000001
sg16
g156
sg18
g9
(g10
S'{\x14\xaeG\xe1zt?'
tRp994
sa(dp995
g8
g138
sg12
g981
sg14
F0.10000000000000001
sg15
F0.10000000000000001
sg16
g140
sg18
g9
(g10
S'\xb8\x1e\x85\xebQ\xb8~?'
tRp996
sa(dp997
g8
g138
sg12
g984
sg14
F0.10000000000000001
sg15
F0.10000000000000001
sg16
g144
sg18
g9
(g10
S'\xb8\x1e\x85\xebQ\xb8~?'
tRp998
sa(dp999
g8
g138
sg12
g987
sg14
F0.10000000000000001
sg15
F0.10000000000000001
sg16
g148
sg18
g9
(g10
S'\xb8\x1e\x85\xebQ\xb8~?'
tRp1000
sa(dp1001
g8
g138
sg12
g990
sg14
F0.10000000000000001
sg15
F0.10000000000000001
sg16
g152
sg18
g9
(g10
S'\xb8\x1e\x85\xebQ\xb8~?'
tRp1002
sa(dp1003
g8
g138
sg12
g993
sg14
F0.10000000000000001
sg15
F0.10000000000000001
sg16
g156
sg18
g9
(g10
S'\xb8\x1e\x85\xebQ\xb8~?'
tRp1004
sa(dp1005
g8
g138
sg12
g981
sg14
F0.10000000000000001
sg15
F0.10000000000000001
sg16
g140
sg18
g9
(g10
S'z\x14\xaeG\xe1z\x84?'
tRp1006
sa(dp1007
g8
g138
sg12
g984
sg14
F0.10000000000000001
sg15
F0.10000000000000001
sg16
g144
sg18
g9
(g10
S'z\x14\xaeG\xe1z\x84?'
tRp1008
sa(dp1009
g8
g138
sg12
g987
sg14
F0.10000000000000001
sg15
F0.10000000000000001
sg16
g148
sg18
g9
(g10
S'z\x14\xaeG\xe1z\x84?'
tRp1010
sa(dp1011
g8
g138
sg12
g990
sg14
F0.10000000000000001
sg15
F0.10000000000000001
sg16
g152
sg18
g9
(g10
S'z\x14\xaeG\xe1z\x84?'
tRp1012
sa(dp1013
g8
g138
sg12
g993
sg14
F0.10000000000000001
sg15
F0.10000000000000001
sg16
g156
sg18
g9
(g10
S'z\x14\xaeG\xe1z\x84?'
tRp1014
sa(dp1015
g8
g138
sg12
g981
sg14
F0.10000000000000001
sg15
F0.10000000000000001
sg16
g140
sg18
g9
(g10
S'\x99\x99\x99\x99\x99\x99\x89?'
tRp1016
sa(dp1017
g8
g138
sg12
g984
sg14
F0.10000000000000001
sg15
F0.10000000000000001
sg16
g144
sg18
g9
(g10
S'\x99\x99\x99\x99\x99\x99\x89?'
tRp1018
sa(dp1019
g8
g138
sg12
g987
sg14
F0.10000000000000001
sg15
F0.10000000000000001
sg16
g148
sg18
g9
(g10
S'\x99\x99\x99\x99\x99\x99\x89?'
tRp1020
sa(dp1021
g8
g138
sg12
g990
sg14
F0.10000000000000001
sg15
F0.10000000000000001
sg16
g152
sg18
g9
(g10
S'\x99\x99\x99\x99\x99\x99\x89?'
tRp1022
sa(dp1023
g8
g138
sg12
g993
sg14
F0.10000000000000001
sg15
F0.10000000000000001
sg16
g156
sg18
g9
(g10
S'\x99\x99\x99\x99\x99\x99\x89?'
tRp1024
sa(dp1025
g8
g138
sg12
g981
sg14
F0.10000000000000001
sg15
F0.10000000000000001
sg16
g140
sg18
g9
(g10
S'\xb8\x1e\x85\xebQ\xb8\x8e?'
tRp1026
sa(dp1027
g8
g138
sg12
g984
sg14
F0.10000000000000001
sg15
F0.10000000000000001
sg16
g144
sg18
g9
(g10
S'\xb8\x1e\x85\xebQ\xb8\x8e?'
tRp1028
sa(dp1029
g8
g138
sg12
g987
sg14
F0.10000000000000001
sg15
F0.10000000000000001
sg16
g148
sg18
g9
(g10
S'\xb8\x1e\x85\xebQ\xb8\x8e?'
tRp1030
sa(dp1031
g8
g138
sg12
g990
sg14
F0.10000000000000001
sg15
F0.10000000000000001
sg16
g152
sg18
g9
(g10
S'\xb8\x1e\x85\xebQ\xb8\x8e?'
tRp1032
sa(dp1033
g8
g138
sg12
g993
sg14
F0.10000000000000001
sg15
F0.10000000000000001
sg16
g156
sg18
g9
(g10
S'\xb8\x1e\x85\xebQ\xb8\x8e?'
tRp1034
sa(dp1035
g8
g199
sg12
g9
(g10
S'\xfc\xa9\xf1\xd2Mbp?'
tRp1036
sg14
F0.10000000000000001
sg15
F0.10000000000000001
sg16
g201
sg18
g9
(g10
S'{\x14\xaeG\xe1zt?'
tRp1037
sa(dp1038
g8
g199
sg12
g9
(g10
S'\xfc\xa9\xf1\xd2Mbp?'
tRp1039
sg14
F0.10000000000000001
sg15
F0.10000000000000001
sg16
g205
sg18
g9
(g10
S'{\x14\xaeG\xe1zt?'
tRp1040
sa(dp1041
g8
g199
sg12
g9
(g10
S'\xfc\xa9\xf1\xd2Mbp?'
tRp1042
sg14
F0.10000000000000001
sg15
F0.10000000000000001
sg16
g209
sg18
g9
(g10
S'{\x14\xaeG\xe1zt?'
tRp1043
sa(dp1044
g8
g199
sg12
g9
(g10
S'\xfc\xa9\xf1\xd2Mbp?'
tRp1045
sg14
F0.10000000000000001
sg15
F0.10000000000000001
sg16
g213
sg18
g9
(g10
S'{\x14\xaeG\xe1zt?'
tRp1046
sa(dp1047
g8
g199
sg12
g9
(g10
S'\xfc\xa9\xf1\xd2Mbp?'
tRp1048
sg14
F0.10000000000000001
sg15
F0.10000000000000001
sg16
g217
sg18
g9
(g10
S'{\x14\xaeG\xe1zt?'
tRp1049
sa(dp1050
g8
g199
sg12
g1036
sg14
F0.10000000000000001
sg15
F0.10000000000000001
sg16
g201
sg18
g9
(g10
S'\xb8\x1e\x85\xebQ\xb8~?'
tRp1051
sa(dp1052
g8
g199
sg12
g1039
sg14
F0.10000000000000001
sg15
F0.10000000000000001
sg16
g205
sg18
g9
(g10
S'\xb8\x1e\x85\xebQ\xb8~?'
tRp1053
sa(dp1054
g8
g199
sg12
g1042
sg14
F0.10000000000000001
sg15
F0.10000000000000001
sg16
g209
sg18
g9
(g10
S'\xb8\x1e\x85\xebQ\xb8~?'
tRp1055
sa(dp1056
g8
g199
sg12
g1045
sg14
F0.10000000000000001
sg15
F0.10000000000000001
sg16
g213
sg18
g9
(g10
S'\xb8\x1e\x85\xebQ\xb8~?'
tRp1057
sa(dp1058
g8
g199
sg12
g1048
sg14
F0.10000000000000001
sg15
F0.10000000000000001
sg16
g217
sg18
g9
(g10
S'\xb8\x1e\x85\xebQ\xb8~?'
tRp1059
sa(dp1060
g8
g199
sg12
g1036
sg14
F0.10000000000000001
sg15
F0.10000000000000001
sg16
g201
sg18
g9
(g10
S'z\x14\xaeG\xe1z\x84?'
tRp1061
sa(dp1062
g8
g199
sg12
g1039
sg14
F0.10000000000000001
sg15
F0.10000000000000001
sg16
g205
sg18
g9
(g10
S'z\x14\xaeG\xe1z\x84?'
tRp1063
sa(dp1064
g8
g199
sg12
g1042
sg14
F0.10000000000000001
sg15
F0.10000000000000001
sg16
g209
sg18
g9
(g10
S'z\x14\xaeG\xe1z\x84?'
tRp1065
sa(dp1066
g8
g199
sg12
g1045
sg14
F0.10000000000000001
sg15
F0.10000000000000001
sg16
g213
sg18
g9
(g10
S'z\x14\xaeG\xe1z\x84?'
tRp1067
sa(dp1068
g8
g199
sg12
g1048
sg14
F0.10000000000000001
sg15
F0.10000000000000001
sg16
g217
sg18
g9
(g10
S'z\x14\xaeG\xe1z\x84?'
tRp1069
sa(dp1070
g8
g199
sg12
g1036
sg14
F0.10000000000000001
sg15
F0.10000000000000001
sg16
g201
sg18
g9
(g10
S'\x99\x99\x99\x99\x99\x99\x89?'
tRp1071
sa(dp1072
g8
g199
sg12
g1039
sg14
F0.10000000000000001
sg15
F0.10000000000000001
sg16
g205
sg18
g9
(g10
S'\x99\x99\x99\x99\x99\x99\x89?'
tRp1073
sa(dp1074
g8
g199
sg12
g1042
sg14
F0.10000000000000001
sg15
F0.10000000000000001
sg16
g209
sg18
g9
(g10
S'\x99\x99\x99\x99\x99\x99\x89?'
tRp1075
sa(dp1076
g8
g199
sg12
g1045
sg14
F0.10000000000000001
sg15
F0.10000000000000001
sg16
g213
sg18
g9
(g10
S'\x99\x99\x99\x99\x99\x99\x89?'
tRp1077
sa(dp1078
g8
g199
sg12
g1048
sg14
F0.10000000000000001
sg15
F0.10000000000000001
sg16
g217
sg18
g9
(g10
S'\x99\x99\x99\x99\x99\x99\x89?'
tRp1079
sa(dp1080
g8
g199
sg12
g1036
sg14
F0.10000000000000001
sg15
F0.10000000000000001
sg16
g201
sg18
g9
(g10
S'\xb8\x1e\x85\xebQ\xb8\x8e?'
tRp1081
sa(dp1082
g8
g199
sg12
g1039
sg14
F0.10000000000000001
sg15
F0.10000000000000001
sg16
g205
sg18
g9
(g10
S'\xb8\x1e\x85\xebQ\xb8\x8e?'
tRp1083
sa(dp1084
g8
g199
sg12
g1042
sg14
F0.10000000000000001
sg15
F0.10000000000000001
sg16
g209
sg18
g9
(g10
S'\xb8\x1e\x85\xebQ\xb8\x8e?'
tRp1085
sa(dp1086
g8
g199
sg12
g1045
sg14
F0.10000000000000001
sg15
F0.10000000000000001
sg16
g213
sg18
g9
(g10
S'\xb8\x1e\x85\xebQ\xb8\x8e?'
tRp1087
sa(dp1088
g8
g199
sg12
g1048
sg14
F0.10000000000000001
sg15
F0.10000000000000001
sg16
g217
sg18
g9
(g10
S'\xb8\x1e\x85\xebQ\xb8\x8e?'
tRp1089
sa(dp1090
g8
g260
sg12
g9
(g10
S'\xfc\xa9\xf1\xd2Mbp?'
tRp1091
sg14
F0.10000000000000001
sg15
F0.10000000000000001
sg16
g262
sg18
g9
(g10
S'{\x14\xaeG\xe1zt?'
tRp1092
sa(dp1093
g8
g260
sg12
g9
(g10
S'\xfc\xa9\xf1\xd2Mbp?'
tRp1094
sg14
F0.10000000000000001
sg15
F0.10000000000000001
sg16
g266
sg18
g9
(g10
S'{\x14\xaeG\xe1zt?'
tRp1095
sa(dp1096
g8
g260
sg12
g9
(g10
S'\xfc\xa9\xf1\xd2Mbp?'
tRp1097
sg14
F0.10000000000000001
sg15
F0.10000000000000001
sg16
g270
sg18
g9
(g10
S'{\x14\xaeG\xe1zt?'
tRp1098
sa(dp1099
g8
g260
sg12
g9
(g10
S'\xfc\xa9\xf1\xd2Mbp?'
tRp1100
sg14
F0.10000000000000001
sg15
F0.10000000000000001
sg16
g274
sg18
g9
(g10
S'{\x14\xaeG\xe1zt?'
tRp1101
sa(dp1102
g8
g260
sg12
g9
(g10
S'\xfc\xa9\xf1\xd2Mbp?'
tRp1103
sg14
F0.10000000000000001
sg15
F0.10000000000000001
sg16
g278
sg18
g9
(g10
S'{\x14\xaeG\xe1zt?'
tRp1104
sa(dp1105
g8
g260
sg12
g1091
sg14
F0.10000000000000001
sg15
F0.10000000000000001
sg16
g262
sg18
g9
(g10
S'\xb8\x1e\x85\xebQ\xb8~?'
tRp1106
sa(dp1107
g8
g260
sg12
g1094
sg14
F0.10000000000000001
sg15
F0.10000000000000001
sg16
g266
sg18
g9
(g10
S'\xb8\x1e\x85\xebQ\xb8~?'
tRp1108
sa(dp1109
g8
g260
sg12
g1097
sg14
F0.10000000000000001
sg15
F0.10000000000000001
sg16
g270
sg18
g9
(g10
S'\xb8\x1e\x85\xebQ\xb8~?'
tRp1110
sa(dp1111
g8
g260
sg12
g1100
sg14
F0.10000000000000001
sg15
F0.10000000000000001
sg16
g274
sg18
g9
(g10
S'\xb8\x1e\x85\xebQ\xb8~?'
tRp1112
sa(dp1113
g8
g260
sg12
g1103
sg14
F0.10000000000000001
sg15
F0.10000000000000001
sg16
g278
sg18
g9
(g10
S'\xb8\x1e\x85\xebQ\xb8~?'
tRp1114
sa(dp1115
g8
g260
sg12
g1091
sg14
F0.10000000000000001
sg15
F0.10000000000000001
sg16
g262
sg18
g9
(g10
S'z\x14\xaeG\xe1z\x84?'
tRp1116
sa(dp1117
g8
g260
sg12
g1094
sg14
F0.10000000000000001
sg15
F0.10000000000000001
sg16
g266
sg18
g9
(g10
S'z\x14\xaeG\xe1z\x84?'
tRp1118
sa(dp1119
g8
g260
sg12
g1097
sg14
F0.10000000000000001
sg15
F0.10000000000000001
sg16
g270
sg18
g9
(g10
S'z\x14\xaeG\xe1z\x84?'
tRp1120
sa(dp1121
g8
g260
sg12
g1100
sg14
F0.10000000000000001
sg15
F0.10000000000000001
sg16
g274
sg18
g9
(g10
S'z\x14\xaeG\xe1z\x84?'
tRp1122
sa(dp1123
g8
g260
sg12
g1103
sg14
F0.10000000000000001
sg15
F0.10000000000000001
sg16
g278
sg18
g9
(g10
S'z\x14\xaeG\xe1z\x84?'
tRp1124
sa(dp1125
g8
g260
sg12
g1091
sg14
F0.10000000000000001
sg15
F0.10000000000000001
sg16
g262
sg18
g9
(g10
S'\x99\x99\x99\x99\x99\x99\x89?'
tRp1126
sa(dp1127
g8
g260
sg12
g1094
sg14
F0.10000000000000001
sg15
F0.10000000000000001
sg16
g266
sg18
g9
(g10
S'\x99\x99\x99\x99\x99\x99\x89?'
tRp1128
sa(dp1129
g8
g260
sg12
g1097
sg14
F0.10000000000000001
sg15
F0.10000000000000001
sg16
g270
sg18
g9
(g10
S'\x99\x99\x99\x99\x99\x99\x89?'
tRp1130
sa(dp1131
g8
g260
sg12
g1100
sg14
F0.10000000000000001
sg15
F0.10000000000000001
sg16
g274
sg18
g9
(g10
S'\x99\x99\x99\x99\x99\x99\x89?'
tRp1132
sa(dp1133
g8
g260
sg12
g1103
sg14
F0.10000000000000001
sg15
F0.10000000000000001
sg16
g278
sg18
g9
(g10
S'\x99\x99\x99\x99\x99\x99\x89?'
tRp1134
sa(dp1135
g8
g260
sg12
g1091
sg14
F0.10000000000000001
sg15
F0.10000000000000001
sg16
g262
sg18
g9
(g10
S'\xb8\x1e\x85\xebQ\xb8\x8e?'
tRp1136
sa(dp1137
g8
g260
sg12
g1094
sg14
F0.10000000000000001
sg15
F0.10000000000000001
sg16
g266
sg18
g9
(g10
S'\xb8\x1e\x85\xebQ\xb8\x8e?'
tRp1138
sa(dp1139
g8
g260
sg12
g1097
sg14
F0.10000000000000001
sg15
F0.10000000000000001
sg16
g270
sg18
g9
(g10
S'\xb8\x1e\x85\xebQ\xb8\x8e?'
tRp1140
sa(dp1141
g8
g260
sg12
g1100
sg14
F0.10000000000000001
sg15
F0.10000000000000001
sg16
g274
sg18
g9
(g10
S'\xb8\x1e\x85\xebQ\xb8\x8e?'
tRp1142
sa(dp1143
g8
g260
sg12
g1103
sg14
F0.10000000000000001
sg15
F0.10000000000000001
sg16
g278
sg18
g9
(g10
S'\xb8\x1e\x85\xebQ\xb8\x8e?'
tRp1144
sa(dp1145
g8
g11
sg12
g9
(g10
S'{\x14\xaeG\xe1zt?'
tRp1146
sg14
F0.10000000000000001
sg15
F0.10000000000000001
sg16
g17
sg18
g9
(g10
S'{\x14\xaeG\xe1zt?'
tRp1147
sa(dp1148
g8
g11
sg12
g9
(g10
S'{\x14\xaeG\xe1zt?'
tRp1149
sg14
F0.10000000000000001
sg15
F0.10000000000000001
sg16
g22
sg18
g9
(g10
S'{\x14\xaeG\xe1zt?'
tRp1150
sa(dp1151
g8
g11
sg12
g9
(g10
S'{\x14\xaeG\xe1zt?'
tRp1152
sg14
F0.10000000000000001
sg15
F0.10000000000000001
sg16
g26
sg18
g9
(g10
S'{\x14\xaeG\xe1zt?'
tRp1153
sa(dp1154
g8
g11
sg12
g9
(g10
S'{\x14\xaeG\xe1zt?'
tRp1155
sg14
F0.10000000000000001
sg15
F0.10000000000000001
sg16
g30
sg18
g9
(g10
S'{\x14\xaeG\xe1zt?'
tRp1156
sa(dp1157
g8
g11
sg12
g9
(g10
S'{\x14\xaeG\xe1zt?'
tRp1158
sg14
F0.10000000000000001
sg15
F0.10000000000000001
sg16
g34
sg18
g9
(g10
S'{\x14\xaeG\xe1zt?'
tRp1159
sa(dp1160
g8
g11
sg12
g1146
sg14
F0.10000000000000001
sg15
F0.10000000000000001
sg16
g17
sg18
g9
(g10
S'\xb8\x1e\x85\xebQ\xb8~?'
tRp1161
sa(dp1162
g8
g11
sg12
g1149
sg14
F0.10000000000000001
sg15
F0.10000000000000001
sg16
g22
sg18
g9
(g10
S'\xb8\x1e\x85\xebQ\xb8~?'
tRp1163
sa(dp1164
g8
g11
sg12
g1152
sg14
F0.10000000000000001
sg15
F0.10000000000000001
sg16
g26
sg18
g9
(g10
S'\xb8\x1e\x85\xebQ\xb8~?'
tRp1165
sa(dp1166
g8
g11
sg12
g1155
sg14
F0.10000000000000001
sg15
F0.10000000000000001
sg16
g30
sg18
g9
(g10
S'\xb8\x1e\x85\xebQ\xb8~?'
tRp1167
sa(dp1168
g8
g11
sg12
g1158
sg14
F0.10000000000000001
sg15
F0.10000000000000001
sg16
g34
sg18
g9
(g10
S'\xb8\x1e\x85\xebQ\xb8~?'
tRp1169
sa(dp1170
g8
g11
sg12
g1146
sg14
F0.10000000000000001
sg15
F0.10000000000000001
sg16
g17
sg18
g9
(g10
S'z\x14\xaeG\xe1z\x84?'
tRp1171
sa(dp1172
g8
g11
sg12
g1149
sg14
F0.10000000000000001
sg15
F0.10000000000000001
sg16
g22
sg18
g9
(g10
S'z\x14\xaeG\xe1z\x84?'
tRp1173
sa(dp1174
g8
g11
sg12
g1152
sg14
F0.10000000000000001
sg15
F0.10000000000000001
sg16
g26
sg18
g9
(g10
S'z\x14\xaeG\xe1z\x84?'
tRp1175
sa(dp1176
g8
g11
sg12
g1155
sg14
F0.10000000000000001
sg15
F0.10000000000000001
sg16
g30
sg18
g9
(g10
S'z\x14\xaeG\xe1z\x84?'
tRp1177
sa(dp1178
g8
g11
sg12
g1158
sg14
F0.10000000000000001
sg15
F0.10000000000000001
sg16
g34
sg18
g9
(g10
S'z\x14\xaeG\xe1z\x84?'
tRp1179
sa(dp1180
g8
g11
sg12
g1146
sg14
F0.10000000000000001
sg15
F0.10000000000000001
sg16
g17
sg18
g9
(g10
S'\x99\x99\x99\x99\x99\x99\x89?'
tRp1181
sa(dp1182
g8
g11
sg12
g1149
sg14
F0.10000000000000001
sg15
F0.10000000000000001
sg16
g22
sg18
g9
(g10
S'\x99\x99\x99\x99\x99\x99\x89?'
tRp1183
sa(dp1184
g8
g11
sg12
g1152
sg14
F0.10000000000000001
sg15
F0.10000000000000001
sg16
g26
sg18
g9
(g10
S'\x99\x99\x99\x99\x99\x99\x89?'
tRp1185
sa(dp1186
g8
g11
sg12
g1155
sg14
F0.10000000000000001
sg15
F0.10000000000000001
sg16
g30
sg18
g9
(g10
S'\x99\x99\x99\x99\x99\x99\x89?'
tRp1187
sa(dp1188
g8
g11
sg12
g1158
sg14
F0.10000000000000001
sg15
F0.10000000000000001
sg16
g34
sg18
g9
(g10
S'\x99\x99\x99\x99\x99\x99\x89?'
tRp1189
sa(dp1190
g8
g11
sg12
g1146
sg14
F0.10000000000000001
sg15
F0.10000000000000001
sg16
g17
sg18
g9
(g10
S'\xb8\x1e\x85\xebQ\xb8\x8e?'
tRp1191
sa(dp1192
g8
g11
sg12
g1149
sg14
F0.10000000000000001
sg15
F0.10000000000000001
sg16
g22
sg18
g9
(g10
S'\xb8\x1e\x85\xebQ\xb8\x8e?'
tRp1193
sa(dp1194
g8
g11
sg12
g1152
sg14
F0.10000000000000001
sg15
F0.10000000000000001
sg16
g26
sg18
g9
(g10
S'\xb8\x1e\x85\xebQ\xb8\x8e?'
tRp1195
sa(dp1196
g8
g11
sg12
g1155
sg14
F0.10000000000000001
sg15
F0.10000000000000001
sg16
g30
sg18
g9
(g10
S'\xb8\x1e\x85\xebQ\xb8\x8e?'
tRp1197
sa(dp1198
g8
g11
sg12
g1158
sg14
F0.10000000000000001
sg15
F0.10000000000000001
sg16
g34
sg18
g9
(g10
S'\xb8\x1e\x85\xebQ\xb8\x8e?'
tRp1199
sa(dp1200
g8
g77
sg12
g9
(g10
S'{\x14\xaeG\xe1zt?'
tRp1201
sg14
F0.10000000000000001
sg15
F0.10000000000000001
sg16
g79
sg18
g9
(g10
S'{\x14\xaeG\xe1zt?'
tRp1202
sa(dp1203
g8
g77
sg12
g9
(g10
S'{\x14\xaeG\xe1zt?'
tRp1204
sg14
F0.10000000000000001
sg15
F0.10000000000000001
sg16
g83
sg18
g9
(g10
S'{\x14\xaeG\xe1zt?'
tRp1205
sa(dp1206
g8
g77
sg12
g9
(g10
S'{\x14\xaeG\xe1zt?'
tRp1207
sg14
F0.10000000000000001
sg15
F0.10000000000000001
sg16
g87
sg18
g9
(g10
S'{\x14\xaeG\xe1zt?'
tRp1208
sa(dp1209
g8
g77
sg12
g9
(g10
S'{\x14\xaeG\xe1zt?'
tRp1210
sg14
F0.10000000000000001
sg15
F0.10000000000000001
sg16
g91
sg18
g9
(g10
S'{\x14\xaeG\xe1zt?'
tRp1211
sa(dp1212
g8
g77
sg12
g9
(g10
S'{\x14\xaeG\xe1zt?'
tRp1213
sg14
F0.10000000000000001
sg15
F0.10000000000000001
sg16
g95
sg18
g9
(g10
S'{\x14\xaeG\xe1zt?'
tRp1214
sa(dp1215
g8
g77
sg12
g1201
sg14
F0.10000000000000001
sg15
F0.10000000000000001
sg16
g79
sg18
g9
(g10
S'\xb8\x1e\x85\xebQ\xb8~?'
tRp1216
sa(dp1217
g8
g77
sg12
g1204
sg14
F0.10000000000000001
sg15
F0.10000000000000001
sg16
g83
sg18
g9
(g10
S'\xb8\x1e\x85\xebQ\xb8~?'
tRp1218
sa(dp1219
g8
g77
sg12
g1207
sg14
F0.10000000000000001
sg15
F0.10000000000000001
sg16
g87
sg18
g9
(g10
S'\xb8\x1e\x85\xebQ\xb8~?'
tRp1220
sa(dp1221
g8
g77
sg12
g1210
sg14
F0.10000000000000001
sg15
F0.10000000000000001
sg16
g91
sg18
g9
(g10
S'\xb8\x1e\x85\xebQ\xb8~?'
tRp1222
sa(dp1223
g8
g77
sg12
g1213
sg14
F0.10000000000000001
sg15
F0.10000000000000001
sg16
g95
sg18
g9
(g10
S'\xb8\x1e\x85\xebQ\xb8~?'
tRp1224
sa(dp1225
g8
g77
sg12
g1201
sg14
F0.10000000000000001
sg15
F0.10000000000000001
sg16
g79
sg18
g9
(g10
S'z\x14\xaeG\xe1z\x84?'
tRp1226
sa(dp1227
g8
g77
sg12
g1204
sg14
F0.10000000000000001
sg15
F0.10000000000000001
sg16
g83
sg18
g9
(g10
S'z\x14\xaeG\xe1z\x84?'
tRp1228
sa(dp1229
g8
g77
sg12
g1207
sg14
F0.10000000000000001
sg15
F0.10000000000000001
sg16
g87
sg18
g9
(g10
S'z\x14\xaeG\xe1z\x84?'
tRp1230
sa(dp1231
g8
g77
sg12
g1210
sg14
F0.10000000000000001
sg15
F0.10000000000000001
sg16
g91
sg18
g9
(g10
S'z\x14\xaeG\xe1z\x84?'
tRp1232
sa(dp1233
g8
g77
sg12
g1213
sg14
F0.10000000000000001
sg15
F0.10000000000000001
sg16
g95
sg18
g9
(g10
S'z\x14\xaeG\xe1z\x84?'
tRp1234
sa(dp1235
g8
g77
sg12
g1201
sg14
F0.10000000000000001
sg15
F0.10000000000000001
sg16
g79
sg18
g9
(g10
S'\x99\x99\x99\x99\x99\x99\x89?'
tRp1236
sa(dp1237
g8
g77
sg12
g1204
sg14
F0.10000000000000001
sg15
F0.10000000000000001
sg16
g83
sg18
g9
(g10
S'\x99\x99\x99\x99\x99\x99\x89?'
tRp1238
sa(dp1239
g8
g77
sg12
g1207
sg14
F0.10000000000000001
sg15
F0.10000000000000001
sg16
g87
sg18
g9
(g10
S'\x99\x99\x99\x99\x99\x99\x89?'
tRp1240
sa(dp1241
g8
g77
sg12
g1210
sg14
F0.10000000000000001
sg15
F0.10000000000000001
sg16
g91
sg18
g9
(g10
S'\x99\x99\x99\x99\x99\x99\x89?'
tRp1242
sa(dp1243
g8
g77
sg12
g1213
sg14
F0.10000000000000001
sg15
F0.10000000000000001
sg16
g95
sg18
g9
(g10
S'\x99\x99\x99\x99\x99\x99\x89?'
tRp1244
sa(dp1245
g8
g77
sg12
g1201
sg14
F0.10000000000000001
sg15
F0.10000000000000001
sg16
g79
sg18
g9
(g10
S'\xb8\x1e\x85\xebQ\xb8\x8e?'
tRp1246
sa(dp1247
g8
g77
sg12
g1204
sg14
F0.10000000000000001
sg15
F0.10000000000000001
sg16
g83
sg18
g9
(g10
S'\xb8\x1e\x85\xebQ\xb8\x8e?'
tRp1248
sa(dp1249
g8
g77
sg12
g1207
sg14
F0.10000000000000001
sg15
F0.10000000000000001
sg16
g87
sg18
g9
(g10
S'\xb8\x1e\x85\xebQ\xb8\x8e?'
tRp1250
sa(dp1251
g8
g77
sg12
g1210
sg14
F0.10000000000000001
sg15
F0.10000000000000001
sg16
g91
sg18
g9
(g10
S'\xb8\x1e\x85\xebQ\xb8\x8e?'
tRp1252
sa(dp1253
g8
g77
sg12
g1213
sg14
F0.10000000000000001
sg15
F0.10000000000000001
sg16
g95
sg18
g9
(g10
S'\xb8\x1e\x85\xebQ\xb8\x8e?'
tRp1254
sa(dp1255
g8
g138
sg12
g9
(g10
S'{\x14\xaeG\xe1zt?'
tRp1256
sg14
F0.10000000000000001
sg15
F0.10000000000000001
sg16
g140
sg18
g9
(g10
S'{\x14\xaeG\xe1zt?'
tRp1257
sa(dp1258
g8
g138
sg12
g9
(g10
S'{\x14\xaeG\xe1zt?'
tRp1259
sg14
F0.10000000000000001
sg15
F0.10000000000000001
sg16
g144
sg18
g9
(g10
S'{\x14\xaeG\xe1zt?'
tRp1260
sa(dp1261
g8
g138
sg12
g9
(g10
S'{\x14\xaeG\xe1zt?'
tRp1262
sg14
F0.10000000000000001
sg15
F0.10000000000000001
sg16
g148
sg18
g9
(g10
S'{\x14\xaeG\xe1zt?'
tRp1263
sa(dp1264
g8
g138
sg12
g9
(g10
S'{\x14\xaeG\xe1zt?'
tRp1265
sg14
F0.10000000000000001
sg15
F0.10000000000000001
sg16
g152
sg18
g9
(g10
S'{\x14\xaeG\xe1zt?'
tRp1266
sa(dp1267
g8
g138
sg12
g9
(g10
S'{\x14\xaeG\xe1zt?'
tRp1268
sg14
F0.10000000000000001
sg15
F0.10000000000000001
sg16
g156
sg18
g9
(g10
S'{\x14\xaeG\xe1zt?'
tRp1269
sa(dp1270
g8
g138
sg12
g1256
sg14
F0.10000000000000001
sg15
F0.10000000000000001
sg16
g140
sg18
g9
(g10
S'\xb8\x1e\x85\xebQ\xb8~?'
tRp1271
sa(dp1272
g8
g138
sg12
g1259
sg14
F0.10000000000000001
sg15
F0.10000000000000001
sg16
g144
sg18
g9
(g10
S'\xb8\x1e\x85\xebQ\xb8~?'
tRp1273
sa(dp1274
g8
g138
sg12
g1262
sg14
F0.10000000000000001
sg15
F0.10000000000000001
sg16
g148
sg18
g9
(g10
S'\xb8\x1e\x85\xebQ\xb8~?'
tRp1275
sa(dp1276
g8
g138
sg12
g1265
sg14
F0.10000000000000001
sg15
F0.10000000000000001
sg16
g152
sg18
g9
(g10
S'\xb8\x1e\x85\xebQ\xb8~?'
tRp1277
sa(dp1278
g8
g138
sg12
g1268
sg14
F0.10000000000000001
sg15
F0.10000000000000001
sg16
g156
sg18
g9
(g10
S'\xb8\x1e\x85\xebQ\xb8~?'
tRp1279
sa(dp1280
g8
g138
sg12
g1256
sg14
F0.10000000000000001
sg15
F0.10000000000000001
sg16
g140
sg18
g9
(g10
S'z\x14\xaeG\xe1z\x84?'
tRp1281
sa(dp1282
g8
g138
sg12
g1259
sg14
F0.10000000000000001
sg15
F0.10000000000000001
sg16
g144
sg18
g9
(g10
S'z\x14\xaeG\xe1z\x84?'
tRp1283
sa(dp1284
g8
g138
sg12
g1262
sg14
F0.10000000000000001
sg15
F0.10000000000000001
sg16
g148
sg18
g9
(g10
S'z\x14\xaeG\xe1z\x84?'
tRp1285
sa(dp1286
g8
g138
sg12
g1265
sg14
F0.10000000000000001
sg15
F0.10000000000000001
sg16
g152
sg18
g9
(g10
S'z\x14\xaeG\xe1z\x84?'
tRp1287
sa(dp1288
g8
g138
sg12
g1268
sg14
F0.10000000000000001
sg15
F0.10000000000000001
sg16
g156
sg18
g9
(g10
S'z\x14\xaeG\xe1z\x84?'
tRp1289
sa(dp1290
g8
g138
sg12
g1256
sg14
F0.10000000000000001
sg15
F0.10000000000000001
sg16
g140
sg18
g9
(g10
S'\x99\x99\x99\x99\x99\x99\x89?'
tRp1291
sa(dp1292
g8
g138
sg12
g1259
sg14
F0.10000000000000001
sg15
F0.10000000000000001
sg16
g144
sg18
g9
(g10
S'\x99\x99\x99\x99\x99\x99\x89?'
tRp1293
sa(dp1294
g8
g138
sg12
g1262
sg14
F0.10000000000000001
sg15
F0.10000000000000001
sg16
g148
sg18
g9
(g10
S'\x99\x99\x99\x99\x99\x99\x89?'
tRp1295
sa(dp1296
g8
g138
sg12
g1265
sg14
F0.10000000000000001
sg15
F0.10000000000000001
sg16
g152
sg18
g9
(g10
S'\x99\x99\x99\x99\x99\x99\x89?'
tRp1297
sa(dp1298
g8
g138
sg12
g1268
sg14
F0.10000000000000001
sg15
F0.10000000000000001
sg16
g156
sg18
g9
(g10
S'\x99\x99\x99\x99\x99\x99\x89?'
tRp1299
sa(dp1300
g8
g138
sg12
g1256
sg14
F0.10000000000000001
sg15
F0.10000000000000001
sg16
g140
sg18
g9
(g10
S'\xb8\x1e\x85\xebQ\xb8\x8e?'
tRp1301
sa(dp1302
g8
g138
sg12
g1259
sg14
F0.10000000000000001
sg15
F0.10000000000000001
sg16
g144
sg18
g9
(g10
S'\xb8\x1e\x85\xebQ\xb8\x8e?'
tRp1303
sa(dp1304
g8
g138
sg12
g1262
sg14
F0.10000000000000001
sg15
F0.10000000000000001
sg16
g148
sg18
g9
(g10
S'\xb8\x1e\x85\xebQ\xb8\x8e?'
tRp1305
sa(dp1306
g8
g138
sg12
g1265
sg14
F0.10000000000000001
sg15
F0.10000000000000001
sg16
g152
sg18
g9
(g10
S'\xb8\x1e\x85\xebQ\xb8\x8e?'
tRp1307
sa(dp1308
g8
g138
sg12
g1268
sg14
F0.10000000000000001
sg15
F0.10000000000000001
sg16
g156
sg18
g9
(g10
S'\xb8\x1e\x85\xebQ\xb8\x8e?'
tRp1309
sa(dp1310
g8
g199
sg12
g9
(g10
S'{\x14\xaeG\xe1zt?'
tRp1311
sg14
F0.10000000000000001
sg15
F0.10000000000000001
sg16
g201
sg18
g9
(g10
S'{\x14\xaeG\xe1zt?'
tRp1312
sa(dp1313
g8
g199
sg12
g9
(g10
S'{\x14\xaeG\xe1zt?'
tRp1314
sg14
F0.10000000000000001
sg15
F0.10000000000000001
sg16
g205
sg18
g9
(g10
S'{\x14\xaeG\xe1zt?'
tRp1315
sa(dp1316
g8
g199
sg12
g9
(g10
S'{\x14\xaeG\xe1zt?'
tRp1317
sg14
F0.10000000000000001
sg15
F0.10000000000000001
sg16
g209
sg18
g9
(g10
S'{\x14\xaeG\xe1zt?'
tRp1318
sa(dp1319
g8
g199
sg12
g9
(g10
S'{\x14\xaeG\xe1zt?'
tRp1320
sg14
F0.10000000000000001
sg15
F0.10000000000000001
sg16
g213
sg18
g9
(g10
S'{\x14\xaeG\xe1zt?'
tRp1321
sa(dp1322
g8
g199
sg12
g9
(g10
S'{\x14\xaeG\xe1zt?'
tRp1323
sg14
F0.10000000000000001
sg15
F0.10000000000000001
sg16
g217
sg18
g9
(g10
S'{\x14\xaeG\xe1zt?'
tRp1324
sa(dp1325
g8
g199
sg12
g1311
sg14
F0.10000000000000001
sg15
F0.10000000000000001
sg16
g201
sg18
g9
(g10
S'\xb8\x1e\x85\xebQ\xb8~?'
tRp1326
sa(dp1327
g8
g199
sg12
g1314
sg14
F0.10000000000000001
sg15
F0.10000000000000001
sg16
g205
sg18
g9
(g10
S'\xb8\x1e\x85\xebQ\xb8~?'
tRp1328
sa(dp1329
g8
g199
sg12
g1317
sg14
F0.10000000000000001
sg15
F0.10000000000000001
sg16
g209
sg18
g9
(g10
S'\xb8\x1e\x85\xebQ\xb8~?'
tRp1330
sa(dp1331
g8
g199
sg12
g1320
sg14
F0.10000000000000001
sg15
F0.10000000000000001
sg16
g213
sg18
g9
(g10
S'\xb8\x1e\x85\xebQ\xb8~?'
tRp1332
sa(dp1333
g8
g199
sg12
g1323
sg14
F0.10000000000000001
sg15
F0.10000000000000001
sg16
g217
sg18
g9
(g10
S'\xb8\x1e\x85\xebQ\xb8~?'
tRp1334
sa(dp1335
g8
g199
sg12
g1311
sg14
F0.10000000000000001
sg15
F0.10000000000000001
sg16
g201
sg18
g9
(g10
S'z\x14\xaeG\xe1z\x84?'
tRp1336
sa(dp1337
g8
g199
sg12
g1314
sg14
F0.10000000000000001
sg15
F0.10000000000000001
sg16
g205
sg18
g9
(g10
S'z\x14\xaeG\xe1z\x84?'
tRp1338
sa(dp1339
g8
g199
sg12
g1317
sg14
F0.10000000000000001
sg15
F0.10000000000000001
sg16
g209
sg18
g9
(g10
S'z\x14\xaeG\xe1z\x84?'
tRp1340
sa(dp1341
g8
g199
sg12
g1320
sg14
F0.10000000000000001
sg15
F0.10000000000000001
sg16
g213
sg18
g9
(g10
S'z\x14\xaeG\xe1z\x84?'
tRp1342
sa(dp1343
g8
g199
sg12
g1323
sg14
F0.10000000000000001
sg15
F0.10000000000000001
sg16
g217
sg18
g9
(g10
S'z\x14\xaeG\xe1z\x84?'
tRp1344
sa(dp1345
g8
g199
sg12
g1311
sg14
F0.10000000000000001
sg15
F0.10000000000000001
sg16
g201
sg18
g9
(g10
S'\x99\x99\x99\x99\x99\x99\x89?'
tRp1346
sa(dp1347
g8
g199
sg12
g1314
sg14
F0.10000000000000001
sg15
F0.10000000000000001
sg16
g205
sg18
g9
(g10
S'\x99\x99\x99\x99\x99\x99\x89?'
tRp1348
sa(dp1349
g8
g199
sg12
g1317
sg14
F0.10000000000000001
sg15
F0.10000000000000001
sg16
g209
sg18
g9
(g10
S'\x99\x99\x99\x99\x99\x99\x89?'
tRp1350
sa(dp1351
g8
g199
sg12
g1320
sg14
F0.10000000000000001
sg15
F0.10000000000000001
sg16
g213
sg18
g9
(g10
S'\x99\x99\x99\x99\x99\x99\x89?'
tRp1352
sa(dp1353
g8
g199
sg12
g1323
sg14
F0.10000000000000001
sg15
F0.10000000000000001
sg16
g217
sg18
g9
(g10
S'\x99\x99\x99\x99\x99\x99\x89?'
tRp1354
sa(dp1355
g8
g199
sg12
g1311
sg14
F0.10000000000000001
sg15
F0.10000000000000001
sg16
g201
sg18
g9
(g10
S'\xb8\x1e\x85\xebQ\xb8\x8e?'
tRp1356
sa(dp1357
g8
g199
sg12
g1314
sg14
F0.10000000000000001
sg15
F0.10000000000000001
sg16
g205
sg18
g9
(g10
S'\xb8\x1e\x85\xebQ\xb8\x8e?'
tRp1358
sa(dp1359
g8
g199
sg12
g1317
sg14
F0.10000000000000001
sg15
F0.10000000000000001
sg16
g209
sg18
g9
(g10
S'\xb8\x1e\x85\xebQ\xb8\x8e?'
tRp1360
sa(dp1361
g8
g199
sg12
g1320
sg14
F0.10000000000000001
sg15
F0.10000000000000001
sg16
g213
sg18
g9
(g10
S'\xb8\x1e\x85\xebQ\xb8\x8e?'
tRp1362
sa(dp1363
g8
g199
sg12
g1323
sg14
F0.10000000000000001
sg15
F0.10000000000000001
sg16
g217
sg18
g9
(g10
S'\xb8\x1e\x85\xebQ\xb8\x8e?'
tRp1364
sa(dp1365
g8
g260
sg12
g9
(g10
S'{\x14\xaeG\xe1zt?'
tRp1366
sg14
F0.10000000000000001
sg15
F0.10000000000000001
sg16
g262
sg18
g9
(g10
S'{\x14\xaeG\xe1zt?'
tRp1367
sa(dp1368
g8
g260
sg12
g9
(g10
S'{\x14\xaeG\xe1zt?'
tRp1369
sg14
F0.10000000000000001
sg15
F0.10000000000000001
sg16
g266
sg18
g9
(g10
S'{\x14\xaeG\xe1zt?'
tRp1370
sa(dp1371
g8
g260
sg12
g9
(g10
S'{\x14\xaeG\xe1zt?'
tRp1372
sg14
F0.10000000000000001
sg15
F0.10000000000000001
sg16
g270
sg18
g9
(g10
S'{\x14\xaeG\xe1zt?'
tRp1373
sa(dp1374
g8
g260
sg12
g9
(g10
S'{\x14\xaeG\xe1zt?'
tRp1375
sg14
F0.10000000000000001
sg15
F0.10000000000000001
sg16
g274
sg18
g9
(g10
S'{\x14\xaeG\xe1zt?'
tRp1376
sa(dp1377
g8
g260
sg12
g9
(g10
S'{\x14\xaeG\xe1zt?'
tRp1378
sg14
F0.10000000000000001
sg15
F0.10000000000000001
sg16
g278
sg18
g9
(g10
S'{\x14\xaeG\xe1zt?'
tRp1379
sa(dp1380
g8
g260
sg12
g1366
sg14
F0.10000000000000001
sg15
F0.10000000000000001
sg16
g262
sg18
g9
(g10
S'\xb8\x1e\x85\xebQ\xb8~?'
tRp1381
sa(dp1382
g8
g260
sg12
g1369
sg14
F0.10000000000000001
sg15
F0.10000000000000001
sg16
g266
sg18
g9
(g10
S'\xb8\x1e\x85\xebQ\xb8~?'
tRp1383
sa(dp1384
g8
g260
sg12
g1372
sg14
F0.10000000000000001
sg15
F0.10000000000000001
sg16
g270
sg18
g9
(g10
S'\xb8\x1e\x85\xebQ\xb8~?'
tRp1385
sa(dp1386
g8
g260
sg12
g1375
sg14
F0.10000000000000001
sg15
F0.10000000000000001
sg16
g274
sg18
g9
(g10
S'\xb8\x1e\x85\xebQ\xb8~?'
tRp1387
sa(dp1388
g8
g260
sg12
g1378
sg14
F0.10000000000000001
sg15
F0.10000000000000001
sg16
g278
sg18
g9
(g10
S'\xb8\x1e\x85\xebQ\xb8~?'
tRp1389
sa(dp1390
g8
g260
sg12
g1366
sg14
F0.10000000000000001
sg15
F0.10000000000000001
sg16
g262
sg18
g9
(g10
S'z\x14\xaeG\xe1z\x84?'
tRp1391
sa(dp1392
g8
g260
sg12
g1369
sg14
F0.10000000000000001
sg15
F0.10000000000000001
sg16
g266
sg18
g9
(g10
S'z\x14\xaeG\xe1z\x84?'
tRp1393
sa(dp1394
g8
g260
sg12
g1372
sg14
F0.10000000000000001
sg15
F0.10000000000000001
sg16
g270
sg18
g9
(g10
S'z\x14\xaeG\xe1z\x84?'
tRp1395
sa(dp1396
g8
g260
sg12
g1375
sg14
F0.10000000000000001
sg15
F0.10000000000000001
sg16
g274
sg18
g9
(g10
S'z\x14\xaeG\xe1z\x84?'
tRp1397
sa(dp1398
g8
g260
sg12
g1378
sg14
F0.10000000000000001
sg15
F0.10000000000000001
sg16
g278
sg18
g9
(g10
S'z\x14\xaeG\xe1z\x84?'
tRp1399
sa(dp1400
g8
g260
sg12
g1366
sg14
F0.10000000000000001
sg15
F0.10000000000000001
sg16
g262
sg18
g9
(g10
S'\x99\x99\x99\x99\x99\x99\x89?'
tRp1401
sa(dp1402
g8
g260
sg12
g1369
sg14
F0.10000000000000001
sg15
F0.10000000000000001
sg16
g266
sg18
g9
(g10
S'\x99\x99\x99\x99\x99\x99\x89?'
tRp1403
sa(dp1404
g8
g260
sg12
g1372
sg14
F0.10000000000000001
sg15
F0.10000000000000001
sg16
g270
sg18
g9
(g10
S'\x99\x99\x99\x99\x99\x99\x89?'
tRp1405
sa(dp1406
g8
g260
sg12
g1375
sg14
F0.10000000000000001
sg15
F0.10000000000000001
sg16
g274
sg18
g9
(g10
S'\x99\x99\x99\x99\x99\x99\x89?'
tRp1407
sa(dp1408
g8
g260
sg12
g1378
sg14
F0.10000000000000001
sg15
F0.10000000000000001
sg16
g278
sg18
g9
(g10
S'\x99\x99\x99\x99\x99\x99\x89?'
tRp1409
sa(dp1410
g8
g260
sg12
g1366
sg14
F0.10000000000000001
sg15
F0.10000000000000001
sg16
g262
sg18
g9
(g10
S'\xb8\x1e\x85\xebQ\xb8\x8e?'
tRp1411
sa(dp1412
g8
g260
sg12
g1369
sg14
F0.10000000000000001
sg15
F0.10000000000000001
sg16
g266
sg18
g9
(g10
S'\xb8\x1e\x85\xebQ\xb8\x8e?'
tRp1413
sa(dp1414
g8
g260
sg12
g1372
sg14
F0.10000000000000001
sg15
F0.10000000000000001
sg16
g270
sg18
g9
(g10
S'\xb8\x1e\x85\xebQ\xb8\x8e?'
tRp1415
sa(dp1416
g8
g260
sg12
g1375
sg14
F0.10000000000000001
sg15
F0.10000000000000001
sg16
g274
sg18
g9
(g10
S'\xb8\x1e\x85\xebQ\xb8\x8e?'
tRp1417
sa(dp1418
g8
g260
sg12
g1378
sg14
F0.10000000000000001
sg15
F0.10000000000000001
sg16
g278
sg18
g9
(g10
S'\xb8\x1e\x85\xebQ\xb8\x8e?'
tRp1419
satb.